###############################################################################
#
# IAR ELF Linker V8.22.1.15669/W32 for ARM                17/Sep/2018  14:44:50
# Copyright 2007-2018 IAR Systems AB.
#
#    Output file  =  
#        C:\Projects\SVNrepo\dibh-prod-esEMex\iar\mex_gateway_Debug\Exe\mex_gateway_Debug.out
#    Map file     =  
#        C:\Projects\SVNrepo\dibh-prod-esEMex\iar\mex_gateway_Debug\List\mex_gateway_Debug.map
#    Command line =  
#        -f C:\Users\mmaffeo\AppData\Local\Temp\EW6068.tmp
#        (C:\Projects\SVNrepo\dibh-prod-esEMex\iar\mex_gateway_Debug\Obj\ap.o
#        C:\Projects\SVNrepo\dibh-prod-esEMex\iar\mex_gateway_Debug\Obj\ap_bservice.o
#        C:\Projects\SVNrepo\dibh-prod-esEMex\iar\mex_gateway_Debug\Obj\ap_bservice_CAN04.o
#        C:\Projects\SVNrepo\dibh-prod-esEMex\iar\mex_gateway_Debug\Obj\ap_bservice_CANOpen.o
#        C:\Projects\SVNrepo\dibh-prod-esEMex\iar\mex_gateway_Debug\Obj\ap_bservice_CANStd.o
#        C:\Projects\SVNrepo\dibh-prod-esEMex\iar\mex_gateway_Debug\Obj\ap_bservice_dv.o
#        C:\Projects\SVNrepo\dibh-prod-esEMex\iar\mex_gateway_Debug\Obj\ap_bservice_prog.o
#        C:\Projects\SVNrepo\dibh-prod-esEMex\iar\mex_gateway_Debug\Obj\ap_bsp.o
#        C:\Projects\SVNrepo\dibh-prod-esEMex\iar\mex_gateway_Debug\Obj\ap_can.o
#        C:\Projects\SVNrepo\dibh-prod-esEMex\iar\mex_gateway_Debug\Obj\ap_cdata.o
#        C:\Projects\SVNrepo\dibh-prod-esEMex\iar\mex_gateway_Debug\Obj\ap_deluxeG5.o
#        C:\Projects\SVNrepo\dibh-prod-esEMex\iar\mex_gateway_Debug\Obj\ap_deluxeG55.o
#        C:\Projects\SVNrepo\dibh-prod-esEMex\iar\mex_gateway_Debug\Obj\ap_dv.o
#        C:\Projects\SVNrepo\dibh-prod-esEMex\iar\mex_gateway_Debug\Obj\ap_eeprom.o
#        C:\Projects\SVNrepo\dibh-prod-esEMex\iar\mex_gateway_Debug\Obj\ap_eeprom_bsp.o
#        C:\Projects\SVNrepo\dibh-prod-esEMex\iar\mex_gateway_Debug\Obj\ap_engine.o
#        C:\Projects\SVNrepo\dibh-prod-esEMex\iar\mex_gateway_Debug\Obj\ap_gateway.o
#        C:\Projects\SVNrepo\dibh-prod-esEMex\iar\mex_gateway_Debug\Obj\ap_hwt.o
#        C:\Projects\SVNrepo\dibh-prod-esEMex\iar\mex_gateway_Debug\Obj\ap_keylessentry.o
#        C:\Projects\SVNrepo\dibh-prod-esEMex\iar\mex_gateway_Debug\Obj\ap_keylessstart.o
#        C:\Projects\SVNrepo\dibh-prod-esEMex\iar\mex_gateway_Debug\Obj\ap_main.o
#        C:\Projects\SVNrepo\dibh-prod-esEMex\iar\mex_gateway_Debug\Obj\ap_schd.o
#        C:\Projects\SVNrepo\dibh-prod-esEMex\iar\mex_gateway_Debug\Obj\ap_subs.o
#        C:\Projects\SVNrepo\dibh-prod-esEMex\iar\mex_gateway_Debug\Obj\ap_tasks.o
#        C:\Projects\SVNrepo\dibh-prod-esEMex\iar\mex_gateway_Debug\Obj\ap_version.o
#        C:\Projects\SVNrepo\dibh-prod-esEMex\iar\mex_gateway_Debug\Obj\cancipher.o
#        C:\Projects\SVNrepo\dibh-prod-esEMex\iar\mex_gateway_Debug\Obj\global.o
#        C:\Projects\SVNrepo\dibh-prod-esEMex\iar\mex_gateway_Debug\Obj\hw_adc.o
#        C:\Projects\SVNrepo\dibh-prod-esEMex\iar\mex_gateway_Debug\Obj\hw_can.o
#        C:\Projects\SVNrepo\dibh-prod-esEMex\iar\mex_gateway_Debug\Obj\hw_can_rx.o
#        C:\Projects\SVNrepo\dibh-prod-esEMex\iar\mex_gateway_Debug\Obj\hw_can_tx.o
#        C:\Projects\SVNrepo\dibh-prod-esEMex\iar\mex_gateway_Debug\Obj\hw_can_txq.o
#        C:\Projects\SVNrepo\dibh-prod-esEMex\iar\mex_gateway_Debug\Obj\hw_clock.o
#        C:\Projects\SVNrepo\dibh-prod-esEMex\iar\mex_gateway_Debug\Obj\hw_dio.o
#        C:\Projects\SVNrepo\dibh-prod-esEMex\iar\mex_gateway_Debug\Obj\hw_fin.o
#        C:\Projects\SVNrepo\dibh-prod-esEMex\iar\mex_gateway_Debug\Obj\hw_gauge.o
#        C:\Projects\SVNrepo\dibh-prod-esEMex\iar\mex_gateway_Debug\Obj\hw_io.o
#        C:\Projects\SVNrepo\dibh-prod-esEMex\iar\mex_gateway_Debug\Obj\hw_mcu.o
#        C:\Projects\SVNrepo\dibh-prod-esEMex\iar\mex_gateway_Debug\Obj\hw_nvm.o
#        C:\Projects\SVNrepo\dibh-prod-esEMex\iar\mex_gateway_Debug\Obj\hw_pwm.o
#        C:\Projects\SVNrepo\dibh-prod-esEMex\iar\mex_gateway_Debug\Obj\hw_timer.o
#        C:\Projects\SVNrepo\dibh-prod-esEMex\iar\mex_gateway_Debug\Obj\iar_stf4_cstartup.o
#        C:\Projects\SVNrepo\dibh-prod-esEMex\iar\mex_gateway_Debug\Obj\J1939_msg.o
#        C:\Projects\SVNrepo\dibh-prod-esEMex\iar\mex_gateway_Debug\Obj\J1939_TP.o
#        C:\Projects\SVNrepo\dibh-prod-esEMex\iar\mex_gateway_Debug\Obj\J1939_TP_rx.o
#        C:\Projects\SVNrepo\dibh-prod-esEMex\iar\mex_gateway_Debug\Obj\J1939_TP_tx.o
#        C:\Projects\SVNrepo\dibh-prod-esEMex\iar\mex_gateway_Debug\Obj\main.o
#        C:\Projects\SVNrepo\dibh-prod-esEMex\iar\mex_gateway_Debug\Obj\mod_Inputs.o
#        C:\Projects\SVNrepo\dibh-prod-esEMex\iar\mex_gateway_Debug\Obj\mod_Library.o
#        C:\Projects\SVNrepo\dibh-prod-esEMex\iar\mex_gateway_Debug\Obj\mod_Outputs.o
#        C:\Projects\SVNrepo\dibh-prod-esEMex\iar\mex_gateway_Debug\Obj\mod_Panel.o
#        C:\Projects\SVNrepo\dibh-prod-esEMex\iar\mex_gateway_Debug\Obj\mod_System.o
#        C:\Projects\SVNrepo\dibh-prod-esEMex\iar\mex_gateway_Debug\Obj\MX_Gtwy_Control.o
#        C:\Projects\SVNrepo\dibh-prod-esEMex\iar\mex_gateway_Debug\Obj\MX_Gtwy_Control_data.o
#        C:\Projects\SVNrepo\dibh-prod-esEMex\iar\mex_gateway_Debug\Obj\nvm_ecuid.o
#        C:\Projects\SVNrepo\dibh-prod-esEMex\iar\mex_gateway_Debug\Obj\passwordverifier.o
#        C:\Projects\SVNrepo\dibh-prod-esEMex\iar\mex_gateway_Debug\Obj\SendMsgNow.o
#        C:\Projects\SVNrepo\dibh-prod-esEMex\iar\mex_gateway_Debug\Obj\stf4_bsp_adc.o
#        C:\Projects\SVNrepo\dibh-prod-esEMex\iar\mex_gateway_Debug\Obj\stf4_bsp_can.o
#        C:\Projects\SVNrepo\dibh-prod-esEMex\iar\mex_gateway_Debug\Obj\stf4_bsp_clock.o
#        C:\Projects\SVNrepo\dibh-prod-esEMex\iar\mex_gateway_Debug\Obj\stf4_bsp_com.o
#        C:\Projects\SVNrepo\dibh-prod-esEMex\iar\mex_gateway_Debug\Obj\stf4_bsp_din.o
#        C:\Projects\SVNrepo\dibh-prod-esEMex\iar\mex_gateway_Debug\Obj\stf4_bsp_dout.o
#        C:\Projects\SVNrepo\dibh-prod-esEMex\iar\mex_gateway_Debug\Obj\stf4_bsp_ecuid.o
#        C:\Projects\SVNrepo\dibh-prod-esEMex\iar\mex_gateway_Debug\Obj\stf4_bsp_fin.o
#        C:\Projects\SVNrepo\dibh-prod-esEMex\iar\mex_gateway_Debug\Obj\stf4_bsp_mcu.o
#        C:\Projects\SVNrepo\dibh-prod-esEMex\iar\mex_gateway_Debug\Obj\stf4_bsp_nvm.o
#        C:\Projects\SVNrepo\dibh-prod-esEMex\iar\mex_gateway_Debug\Obj\stf4_bsp_pwm.o
#        C:\Projects\SVNrepo\dibh-prod-esEMex\iar\mex_gateway_Debug\Obj\stf4_bsp_rom.o
#        C:\Projects\SVNrepo\dibh-prod-esEMex\iar\mex_gateway_Debug\Obj\stf4_bsp_rtc.o
#        C:\Projects\SVNrepo\dibh-prod-esEMex\iar\mex_gateway_Debug\Obj\stf4_bsp_sdata.o
#        C:\Projects\SVNrepo\dibh-prod-esEMex\iar\mex_gateway_Debug\Obj\stf4_fifo.o
#        C:\Projects\SVNrepo\dibh-prod-esEMex\iar\mex_gateway_Debug\Obj\stf4_iic.o
#        C:\Projects\SVNrepo\dibh-prod-esEMex\iar\mex_gateway_Debug\Obj\stf4_timer.o
#        C:\Projects\SVNrepo\dibh-prod-esEMex\iar\mex_gateway_Debug\Obj\stf4_vectors.o
#        C:\Projects\SVNrepo\dibh-prod-esEMex\iar\mex_gateway_Debug\Obj\stm32f4xx_adc.o
#        C:\Projects\SVNrepo\dibh-prod-esEMex\iar\mex_gateway_Debug\Obj\stm32f4xx_can.o
#        C:\Projects\SVNrepo\dibh-prod-esEMex\iar\mex_gateway_Debug\Obj\stm32f4xx_dma.o
#        C:\Projects\SVNrepo\dibh-prod-esEMex\iar\mex_gateway_Debug\Obj\stm32f4xx_gpio.o
#        C:\Projects\SVNrepo\dibh-prod-esEMex\iar\mex_gateway_Debug\Obj\stm32f4xx_i2c.o
#        C:\Projects\SVNrepo\dibh-prod-esEMex\iar\mex_gateway_Debug\Obj\stm32f4xx_iwdg.o
#        C:\Projects\SVNrepo\dibh-prod-esEMex\iar\mex_gateway_Debug\Obj\stm32f4xx_pwr.o
#        C:\Projects\SVNrepo\dibh-prod-esEMex\iar\mex_gateway_Debug\Obj\stm32f4xx_rcc.o
#        C:\Projects\SVNrepo\dibh-prod-esEMex\iar\mex_gateway_Debug\Obj\stm32f4xx_rtc.o
#        C:\Projects\SVNrepo\dibh-prod-esEMex\iar\mex_gateway_Debug\Obj\stm32f4xx_tim.o
#        C:\Projects\SVNrepo\dibh-prod-esEMex\iar\mex_gateway_Debug\Obj\stm32f4xx_usart.o
#        C:\Projects\SVNrepo\dibh-prod-esEMex\iar\mex_gateway_Debug\Obj\system_stm32f4xx.o
#        -o
#        C:\Projects\SVNrepo\dibh-prod-esEMex\iar\mex_gateway_Debug\Exe\mex_gateway_Debug.out
#        --map
#        C:\Projects\SVNrepo\dibh-prod-esEMex\iar\mex_gateway_Debug\List\mex_gateway_Debug.map
#        --config C:\Projects\SVNrepo\dibh-prod-esEMex\iar\stf4_app.icf
#        --semihosting --entry __iar_program_start --no_vfe --text_out locale)
#
###############################################################################

*******************************************************************************
*** RUNTIME MODEL ATTRIBUTES
***

CppFlavor                     = *
__CPP_Exceptions              = Disabled
__CPP_Language                = C++14
__Heap_Handler                = Basic
__SystemLibrary               = DLib
__dlib_dynamic_initialization = normal
__dlib_version                = 6


*******************************************************************************
*** HEAP SELECTION
***

The basic heap was selected because no calls to memory allocation
functions were found in the application outside of system library
functions, and there are calls to deallocation functions in the
application.


*******************************************************************************
*** PLACEMENT SUMMARY
***

"A0":  place at 0x080ffffc { ro section .checksum };
"A1":  place at 0x08040000 { ro section .intvec };
define block SDATA with size = 256, alignment = 8 { };
"A2":  place at start of [from 0x10000000 to 0x1000ffff] { block SDATA };
define block RAMVEC with size = 1088, alignment = 8 { };
"A3":  place at start of [from 0x20000000 to 0x2001ffff] { block RAMVEC };
define block CSTACK with size = 4K, alignment = 8 { };
"A4":  place at end of [from 0x10000000 to 0x1000ffff] { block CSTACK };
"P1":  place in [from 0x08040000 to 0x080fffff] { ro };
define block HEAP with size = 0M, alignment = 8 { };
"P2":  place in [from 0x20000000 to 0x2001ffff] { rw, block HEAP };
initialize by copy { rw };
keep { block SDATA, ro section .checksum };

No sections matched the following patterns:

  section .sram  in "P3"


  Section                Kind        Address     Size  Object
  -------                ----        -------     ----  ------
"A1":                                            0x40
  .intvec                const    0x08040000     0x40  iar_stf4_cstartup.o [1]
                                - 0x08040040     0x40

"P1":                                         0x512ff
  .text                  ro code  0x08040040   0xf75c  mod_Inputs.o [1]
  .text                  ro code  0x0804f79c   0x28e8  mod_Library.o [1]
  .text                  ro code  0x08052084    0x1ac  SendMsgNow.o [1]
  .text                  ro code  0x08052230   0x3214  MX_Gtwy_Control.o [1]
  .text                  ro code  0x08055444    0x184  hw_can_tx.o [1]
  .text                  ro code  0x080555c8   0x2358  ap_eeprom.o [1]
  .text                  ro code  0x08057920     0x3c  SendMsgNow.o [1]
  .text                  ro code  0x0805795c      0xe  SendMsgNow.o [1]
  .text                  ro code  0x0805796a     0x7a  lz77_init_single.o [6]
  .text                  ro code  0x080579e4    0x17c  hw_can_txq.o [1]
  .text                  ro code  0x08057b60   0x3320  ap_can.o [1]
  .text                  ro code  0x0805ae80   0xe57c  mod_System.o [1]
  .text                  ro code  0x080693fc   0x6d40  mod_Outputs.o [1]
  .text                  ro code  0x0807013c   0x4c08  mod_Panel.o [1]
  .text                  ro code  0x08074d44     0x66  ABImemset.o [6]
  .text                  ro code  0x08074daa      0x8  J1939_TP_tx.o [1]
  .text                  ro code  0x08074db2     0x1a  xsnprout.o [3]
  .text                  ro code  0x08074dcc    0x19a  hw_can.o [1]
  .text                  ro code  0x08074f66      0x6  hw_can_tx.o [1]
  .text                  ro code  0x08074f6c     0x14  hw_can_tx.o [1]
  .text                  ro code  0x08074f80     0x14  J1939_TP_tx.o [1]
  .text                  ro code  0x08074f94    0x43c  stf4_bsp_mcu.o [1]
  .text                  ro code  0x080753d0     0x10  J1939_TP_tx.o [1]
  .text                  ro code  0x080753e0    0x440  hw_nvm.o [1]
  .text                  ro code  0x08075820    0x298  ap_bsp.o [1]
  .text                  ro code  0x08075ab8     0x14  J1939_TP_tx.o [1]
  .text                  ro code  0x08075acc     0x10  J1939_TP_tx.o [1]
  .text                  ro code  0x08075adc     0x76  ABImemcpy_unaligned.o [6]
  .rodata                const    0x08075b52      0x2  ap_bservice.o [1]
  .text                  ro code  0x08075b54    0x55c  ap_bservice.o [1]
  .text                  ro code  0x080760b0     0x24  ap_deluxeG55.o [1]
  .text                  ro code  0x080760d4      0xc  J1939_TP_tx.o [1]
  .text                  ro code  0x080760e0     0xf2  hw_can_rx.o [1]
  .rodata                const    0x080761d2      0x2  ap_bservice.o [1]
  .text                  ro code  0x080761d4    0x658  hw_dio.o [1]
  .text                  ro code  0x0807682c     0x3c  ap_can.o [1]
  .text                  ro code  0x08076868    0xd50  ap_subs.o [1]
  .text                  ro code  0x080775b8   0x1cfc  ap_bservice_CAN04.o [1]
  .text                  ro code  0x080792b4     0x26  ap_deluxeG55.o [1]
  .rodata                const    0x080792da      0x2  ap_bservice.o [1]
  .text                  ro code  0x080792dc    0x3a0  J1939_TP_tx.o [1]
  .text                  ro code  0x0807967c     0x18  J1939_TP_tx.o [1]
  .text                  ro code  0x08079694     0x22  J1939_TP_tx.o [1]
  .text                  ro code  0x080796b6     0x12  J1939_TP_tx.o [1]
  .text                  ro code  0x080796c8    0x4ba  stf4_bsp_can.o [1]
  .text                  ro code  0x08079b82     0x22  hw_can.o [1]
  .text                  ro code  0x08079ba4     0x16  hw_can.o [1]
  .text                  ro code  0x08079bba      0xc  hw_can.o [1]
  .text                  ro code  0x08079bc6     0x22  hw_can.o [1]
  .text                  ro code  0x08079be8      0x4  J1939_TP_tx.o [1]
  .text                  ro code  0x08079bec    0x7b8  stm32f4xx_rcc.o [1]
  .text                  ro code  0x0807a3a4     0xac  stf4_vectors.o [1]
  .text                  ro code  0x0807a450    0x15a  stf4_timer.o [1]
  .rodata                const    0x0807a5aa      0x2  ap_hwt.o [1]
  .text                  ro code  0x0807a5ac    0x71c  stf4_iic.o [1]
  .text                  ro code  0x0807acc8     0x10  stm32f4xx_iwdg.o [1]
  .text                  ro code  0x0807acd8    0x630  stm32f4xx_gpio.o [1]
  .text                  ro code  0x0807b308     0x56  iar_stf4_cstartup.o [1]
  .rodata                const    0x0807b35e      0x2  ap_hwt.o [1]
  .text                  ro code  0x0807b360    0x80c  stf4_bsp_nvm.o [1]
  .text                  ro code  0x0807bb6c    0x1ec  hw_adc.o [1]
  .text                  ro code  0x0807bd58    0x184  stf4_bsp_clock.o [1]
  .text                  ro code  0x0807bedc    0x310  stf4_bsp_com.o [1]
  .text                  ro code  0x0807c1ec    0x20a  stf4_bsp_rtc.o [1]
  .rodata                const    0x0807c3f6      0x2  ap_hwt.o [1]
  .text                  ro code  0x0807c3f8     0xc8  stf4_bsp_rom.o [1]
  .text                  ro code  0x0807c4c0     0x54  stf4_bsp_ecuid.o [1]
  .text                  ro code  0x0807c514    0x1a8  stf4_bsp_sdata.o [1]
  .text                  ro code  0x0807c6bc    0x93c  stf4_bsp_adc.o [1]
  .text                  ro code  0x0807cff8     0xd4  stf4_bsp_din.o [1]
  .text                  ro code  0x0807d0cc    0x2a8  stf4_bsp_dout.o [1]
  .text                  ro code  0x0807d374    0x518  stf4_bsp_fin.o [1]
  .text                  ro code  0x0807d88c    0x416  stf4_bsp_pwm.o [1]
  .rodata                const    0x0807dca2      0x2  ap_hwt.o [1]
  .text                  ro code  0x0807dca4    0x4a8  ap_cdata.o [1]
  .text                  ro code  0x0807e14c     0x44  snprintf.o [3]
  .text                  ro code  0x0807e190     0x3c  vsnprint.o [3]
  .text                  ro code  0x0807e1cc    0x160  ap_bservice_dv.o [1]
  .text                  ro code  0x0807e32c      0x4  ap_dv.o [1]
  .text                  ro code  0x0807e330      0x4  ap_hwt.o [1]
  .text                  ro code  0x0807e334      0x6  ap_bservice.o [1]
  .text                  ro code  0x0807e33a      0x6  ap_bservice.o [1]
  .text                  ro code  0x0807e340     0x10  ap_bservice.o [1]
  .text                  ro code  0x0807e350     0xde  hw_mcu.o [1]
  .rodata                const    0x0807e42e      0x2  ap_hwt.o [1]
  .text                  ro code  0x0807e430    0x128  ap_bservice_prog.o [1]
  .text                  ro code  0x0807e558    0x1bc  hw_io.o [1]
  .text                  ro code  0x0807e714     0x1e  hw_clock.o [1]
  .text                  ro code  0x0807e732     0x16  J1939_TP_tx.o [1]
  .text                  ro code  0x0807e748     0x12  J1939_TP_tx.o [1]
  .text                  ro code  0x0807e75a     0x30  J1939_TP_tx.o [1]
  .text                  ro code  0x0807e78a      0x8  J1939_TP_tx.o [1]
  .text                  ro code  0x0807e792     0x1e  J1939_TP_tx.o [1]
  .text                  ro code  0x0807e7b0     0x12  J1939_TP_tx.o [1]
  .rodata                const    0x0807e7c2      0x2  ap_hwt.o [1]
  .text                  ro code  0x0807e7c4    0x818  stm32f4xx_can.o [1]
  .text                  ro code  0x0807efdc    0x10a  stf4_fifo.o [1]
  .text                  ro code  0x0807f0e6     0x10  hw_can.o [1]
  .text                  ro code  0x0807f0f6     0x18  hw_can.o [1]
  .rodata                const    0x0807f10e      0x2  ap_hwt.o [1]
  .text                  ro code  0x0807f110    0x4f4  stm32f4xx_i2c.o [1]
  .text                  ro code  0x0807f604    0x1ac  system_stm32f4xx.o [1]
  .text                  ro code  0x0807f7b0      0xc  cstartup_M.o [6]
  .text                  ro code  0x0807f7bc    0x720  stm32f4xx_usart.o [1]
  .text                  ro code  0x0807fedc     0x60  stm32f4xx_pwr.o [1]
  .text                  ro code  0x0807ff3c    0x51c  stm32f4xx_rtc.o [1]
  .text                  ro code  0x08080458    0x62c  stm32f4xx_dma.o [1]
  .text                  ro code  0x08080a84    0x780  stm32f4xx_adc.o [1]
  .text                  ro code  0x08081204    0x22e  I64DivMod.o [6]
  .rodata                const    0x08081432      0x2  ap_hwt.o [1]
  .text                  ro code  0x08081434   0x1166  stm32f4xx_tim.o [1]
  .rodata                const    0x0808259a      0x2  ap_hwt.o [1]
  .text                  ro code  0x0808259c    0xe22  xprintffull_nomb.o [3]
  .text                  ro code  0x080833be     0x1e  ap_bservice_dv.o [1]
  .text                  ro code  0x080833dc     0x1e  ap_bservice_dv.o [1]
  .text                  ro code  0x080833fa     0x1c  ap_bservice_dv.o [1]
  .text                  ro code  0x08083416     0x1e  ap_bservice_dv.o [1]
  .text                  ro code  0x08083434     0x1e  ap_bservice_dv.o [1]
  .text                  ro code  0x08083452     0x1c  ap_bservice_dv.o [1]
  .text                  ro code  0x0808346e      0x4  ap_bservice_dv.o [1]
  .rodata                const    0x08083472      0x2  ap_hwt.o [1]
  .text                  ro code  0x08083474     0xb0  rand.o [3]
  .text                  ro code  0x08083524     0x32  hw_fin.o [1]
  .rodata                const    0x08083556      0x2  ap_hwt.o [1]
  .text                  ro code  0x08083558     0x8c  hw_pwm.o [1]
  .text                  ro code  0x080835e4      0xe  hw_gauge.o [1]
  .rodata                const    0x080835f2      0x2  ap_hwt.o [1]
  .text                  ro code  0x080835f4     0x28  nvm_ecuid.o [1]
  .text                  ro code  0x0808361c     0x1c  J1939_TP_tx.o [1]
  .text                  ro code  0x08083638     0x22  fpinit_M.o [5]
  .rodata                const    0x0808365a      0x2  ap_hwt.o [1]
  .text                  ro code  0x0808365c     0x1e  cmain.o [6]
  .rodata                const    0x0808367a      0x2  ap_hwt.o [1]
  .text                  ro code  0x0808367c      0x2  I64DivZer.o [6]
  .rodata                const    0x0808367e      0x2  ap_version.o [1]
  .text                  ro code  0x08083680     0x16  strchr.o [6]
  .rodata                const    0x08083696      0x2  hw_can.o [1]
  .text                  ro code  0x08083698     0x40  xfail_s.o [3]
  .text                  ro code  0x080836d8     0x36  strlen.o [6]
  .rodata                const    0x0808370e      0x1  ap_bsp.o [1]
  .rodata                const    0x0808370f      0x1  ap_version.o [1]
  .text                  ro code  0x08083710     0x58  memchr.o [6]
  .text                  ro code  0x08083768    0x1a2  DblMul.o [5]
  .rodata                const    0x0808390a      0x1  ap_version.o [1]
  .rodata                const    0x0808390b      0x1  ap_version.o [1]
  .text                  ro code  0x0808390c     0x70  frexp.o [5]
  .text                  ro code  0x0808397c     0x2e  DblCmpLe.o [5]
  .rodata                const    0x080839aa      0x1  ap_version.o [1]
  .rodata                const    0x080839ab      0x1  unwind_debug.o [7]
  .text                  ro code  0x080839ac     0x2e  DblCmpGe.o [5]
  .text                  ro code  0x080839dc    0x13a  ldexp.o [5]
  .text                  ro code  0x08083b18     0x3a  DblToS32.o [5]
  .text                  ro code  0x08083b54     0x22  S32ToDbl.o [5]
  .text                  ro code  0x08083b78     0xe2  DblSub.o [5]
  .text                  ro code  0x08083c5c    0x246  DblDiv.o [5]
  .text                  ro code  0x08083ea4     0x28  DblToU32.o [5]
  .text                  ro code  0x08083ecc     0x1a  U32ToDbl.o [5]
  .text                  ro code  0x08083ee6      0x4  low_level_init.o [3]
  .text                  ro code  0x08083eec     0x28  data_init.o [6]
  .text                  ro code  0x08083f14     0x18  main.o [1]
  .text                  ro code  0x08083f2c      0x4  exit.o [3]
  .text                  ro code  0x08083f30      0x6  abort.o [3]
  .text                  ro code  0x08083f38    0x168  DblAdd.o [5]
  .text                  ro code  0x080840a0    0x120  ap.o [1]
  .text                  ro code  0x080841c0      0xa  cexit.o [6]
  .text                  ro code  0x080841cc     0x14  exit.o [7]
  .text                  ro code  0x080841e0    0x204  ap_schd.o [1]
  .text                  ro code  0x080843e4   0x3b18  ap_deluxeG5.o [1]
  .text                  ro code  0x08087efc    0x55e  J1939_TP_rx.o [1]
  .text                  ro code  0x0808845a     0x10  ap_engine.o [1]
  .text                  ro code  0x0808846c   0x17ac  ap_main.o [1]
  .text                  ro code  0x08089c18    0x296  ap_gateway.o [1]
  .text                  ro code  0x08089eb0    0xb50  ap_dv.o [1]
  .text                  ro code  0x0808aa00    0x8a4  ap_bservice_CANOpen.o [1]
  .text                  ro code  0x0808b2a4    0x488  ap_bservice_CANStd.o [1]
  .text                  ro code  0x0808b72c    0xe5c  ap_engine.o [1]
  .text                  ro code  0x0808c588    0xdb4  ap_deluxeG55.o [1]
  .text                  ro code  0x0808d33c    0x4b4  ap_keylessstart.o [1]
  .text                  ro code  0x0808d7f0    0xa10  ap_keylessentry.o [1]
  .text                  ro code  0x0808e200      0x4  ap_dv.o [1]
  .text                  ro code  0x0808e204      0x4  ap_dv.o [1]
  .text                  ro code  0x0808e208      0x4  ap_hwt.o [1]
  .text                  ro code  0x0808e20c      0x4  ap_dv.o [1]
  .text                  ro code  0x0808e210    0x3a8  cancipher.o [1]
  .text                  ro code  0x0808e5b8     0x10  ap_keylessentry.o [1]
  .text                  ro code  0x0808e5c8     0x22  I64Shl.o [6]
  .text                  ro code  0x0808e5ec     0x54  passwordverifier.o [1]
  .text                  ro code  0x0808e640    0x53a  ap_hwt.o [1]
  .rodata                const    0x0808eb7c    0x460  stf4_bsp_mcu.o [1]
  .rodata                const    0x0808efdc    0x400  ap_dv.o [1]
  .rodata                const    0x0808f3dc    0x3d8  MX_Gtwy_Control_data.o [1]
  .rodata                const    0x0808f7b4    0x360  ap_dv.o [1]
  .rodata                const    0x0808fb14    0x210  stf4_bsp_adc.o [1]
  .rodata                const    0x0808fd24    0x204  stf4_bsp_dout.o [1]
  .rodata                const    0x0808ff28    0x200  ap_engine.o [1]
  .rodata                const    0x08090128    0x1f0  ap_dv.o [1]
  .rodata                const    0x08090318    0x1c4  ap_can.o [1]
  .rodata                const    0x080904dc    0x120  stf4_bsp_rom.o [1]
  .rodata                const    0x080905fc    0x118  stf4_bsp_mcu.o [1]
  .rodata                const    0x08090714    0x108  stf4_bsp_din.o [1]
  .rodata                const    0x0809081c    0x100  ap_eeprom_bsp.o [1]
  .rodata                const    0x0809091c     0xa0  stf4_bsp_com.o [1]
  .rodata                const    0x080909bc     0x90  stf4_bsp_fin.o [1]
  .rodata                const    0x08090a4c     0x88  stf4_iic.o [1]
  .rodata                const    0x08090ad4     0x54  stf4_bsp_adc.o [1]
  .rodata                const    0x08090b28     0x50  hw_nvm.o [1]
  .rodata                const    0x08090b78     0x48  hw_io.o [1]
  .rodata                const    0x08090bc0     0x40  ap_bservice.o [1]
  .rodata                const    0x08090c00     0x40  ap_hwt.o [1]
  .text                  ro code  0x08090c40     0x40  zero_init3.o [6]
  .rodata                const    0x08090c80     0x34  ap_version.o [1]
  .rodata                const    0x08090cb4     0x30  ap_tasks.o [1]
  .rodata                const    0x08090ce4     0x30  stf4_bsp_nvm.o [1]
  .rodata                const    0x08090d14     0x30  stf4_bsp_nvm.o [1]
  .rodata                const    0x08090d44     0x2c  ap_bsp.o [1]
  .rodata                const    0x08090d70     0x2c  ap_bsp.o [1]
  .rodata                const    0x08090d9c     0x28  stf4_bsp_nvm.o [1]
  .rodata                const    0x08090dc4     0x24  ap.o [1]
  .rodata                const    0x08090de8     0x24  ap_bservice_CAN04.o [1]
  .rodata                const    0x08090e0c     0x24  ap_bsp.o [1]
  .rodata                const    0x08090e30     0x24  stf4_bsp_din.o [1]
  .rodata                const    0x08090e54     0x24  stf4_bsp_nvm.o [1]
  .rodata                const    0x08090e78     0x24  stf4_bsp_nvm.o [1]
  .rodata                const    0x08090e9c     0x24  stf4_bsp_nvm.o [1]
  .iar.init_table        const    0x08090ec0     0x24  - Linker created -
  .rodata                const    0x08090ee4     0x20  ap_bsp.o [1]
  .rodata                const    0x08090f04     0x20  ap_bsp.o [1]
  .rodata                const    0x08090f24     0x20  stf4_bsp_adc.o [1]
  .rodata                const    0x08090f44     0x20  stf4_bsp_pwm.o [1]
  .text                  ro code  0x08090f64     0x20  cmain_call_ctors.o [6]
  .text                  ro code  0x08090f84     0x18  cppinit.o [3]
  .rodata                const    0x08090f9c     0x1c  stf4_bsp_dout.o [1]
  .rodata                const    0x08090fb8     0x1c  stf4_bsp_mcu.o [1]
  .rodata                const    0x08090fd4     0x18  ap_eeprom.o [1]
  .rodata                const    0x08090fec     0x18  stf4_bsp_mcu.o [1]
  .rodata                const    0x08091004     0x18  stf4_bsp_nvm.o [1]
  .rodata                const    0x0809101c     0x18  stf4_bsp_sdata.o [1]
  .rodata                const    0x08091034     0x18  stf4_timer.o [1]
  .rodata                const    0x0809104c     0x14  ap_bsp.o [1]
  .rodata                const    0x08091060     0x14  ap_bsp.o [1]
  .rodata                const    0x08091074     0x14  ap_main.o [1]
  .rodata                const    0x08091088     0x14  stf4_bsp_nvm.o [1]
  .rodata                const    0x0809109c     0x14  stf4_bsp_sdata.o [1]
  .rodata                const    0x080910b0     0x14  stm32f4xx_gpio.o [1]
  .rodata                const    0x080910c4     0x14  stm32f4xx_usart.o [1]
  .rodata                const    0x080910d8     0x10  ap_bsp.o [1]
  .rodata                const    0x080910e8     0x10  ap_deluxeG55.o [1]
  .rodata                const    0x080910f8     0x10  ap_eeprom.o [1]
  .rodata                const    0x08091108     0x10  cancipher.o [1]
  .rodata                const    0x08091118     0x10  stf4_bsp_fin.o [1]
  .rodata                const    0x08091128     0x10  stf4_bsp_mcu.o [1]
  .rodata                const    0x08091138     0x10  stf4_bsp_nvm.o [1]
  .rodata                const    0x08091148     0x10  stf4_bsp_sdata.o [1]
  .rodata                const    0x08091158     0x10  stm32f4xx_adc.o [1]
  .rodata                const    0x08091168     0x10  stm32f4xx_can.o [1]
  .rodata                const    0x08091178     0x10  stm32f4xx_dma.o [1]
  .rodata                const    0x08091188     0x10  stm32f4xx_i2c.o [1]
  .rodata                const    0x08091198     0x10  stm32f4xx_pwr.o [1]
  .rodata                const    0x080911a8     0x10  stm32f4xx_rcc.o [1]
  .rodata                const    0x080911b8     0x10  stm32f4xx_rtc.o [1]
  .rodata                const    0x080911c8     0x10  stm32f4xx_tim.o [1]
  .rodata                const    0x080911d8      0xc  ap_bsp.o [1]
  .rodata                const    0x080911e4      0xc  ap_bsp.o [1]
  .rodata                const    0x080911f0      0xc  ap_main.o [1]
  .rodata                const    0x080911fc      0xc  hw_pwm.o [1]
  .rodata                const    0x08091208      0xc  stf4_bsp_sdata.o [1]
  .rodata                const    0x08091214      0xc  stf4_bsp_sdata.o [1]
  .rodata                const    0x08091220      0x8  stf4_bsp_can.o [1]
  .rodata                const    0x08091228      0x8  stf4_bsp_nvm.o [1]
  .rodata                const    0x08091230      0x4  ap_eeprom.o [1]
  .rodata                const    0x08091234      0x4  ap_eeprom.o [1]
  .rodata                const    0x08091238      0x4  MX_Gtwy_Control.o [1]
  .rodata                const    0x0809123c      0x4  stf4_bsp_ecuid.o [1]
  .rodata                const    0x08091240      0x4  stf4_bsp_pwm.o [1]
  .rodata                const    0x08091244      0x4  stf4_bsp_pwm.o [1]
  SHT$$PREINIT_ARRAY              0x08091248      0x0  <Block>
  SHT$$INIT_ARRAY                 0x08091248      0x4  <Block>
    .init_array          const    0x08091248      0x4  cancipher.o [1]
  __iar_tls$$INIT_ARRAY           0x0809124c      0x0  <Block>
  .rodata                const    0x0809124c      0x0  zero_init3.o [6]
  .rodata                const    0x0809124c      0x0  lz77_init_single.o [6]
  Initializer bytes      const    0x0809124c     0xf3  <for P2-1>
                                - 0x0809133f  0x512ff

"A0":                                             0x4
  .checksum              const    0x080ffffc      0x4  iar_stf4_cstartup.o [1]
                                - 0x08100000      0x4

"A2":                                           0x100
  SDATA                           0x10000000    0x100  <Block>
    SDATA                uninit   0x10000000    0x100  <Block tail>
                                - 0x10000100    0x100

"A4":                                          0x1000
  CSTACK                          0x1000f000   0x1000  <Block>
    CSTACK               uninit   0x1000f000   0x1000  <Block tail>
                                - 0x10010000   0x1000

"A3":                                           0x440
  RAMVEC                          0x20000000    0x440  <Block>
    RAMVEC               uninit   0x20000000    0x440  <Block tail>
                                - 0x20000440    0x440

"P2", part 1 of 2:                              0x1aa
  P2-1                            0x20000440    0x1aa  <Init block>
    .data                inited   0x20000440      0x4  ap_bservice.o [1]
    .data                inited   0x20000444      0x4  ap_dv.o [1]
    .data                inited   0x20000448      0x4  stf4_bsp_clock.o [1]
    .data                inited   0x2000044c      0x4  stf4_bsp_clock.o [1]
    .data                inited   0x20000450     0x20  stf4_bsp_nvm.o [1]
    .data                inited   0x20000470    0x154  stf4_bsp_pwm.o [1]
    .data                inited   0x200005c4     0x10  stm32f4xx_rcc.o [1]
    .data                inited   0x200005d4      0x8  rand.o [3]
    .data                inited   0x200005dc      0x2  ap_bservice_CAN04.o [1]
    .data                inited   0x200005de      0x2  ap_deluxeG55.o [1]
    .data                inited   0x200005e0      0x1  ap_bservice_CAN04.o [1]
    .data                inited   0x200005e1      0x1  ap_deluxeG55.o [1]
    .data                inited   0x200005e2      0x1  ap_deluxeG55.o [1]
    .data                inited   0x200005e3      0x1  ap_keylessentry.o [1]
    .data                inited   0x200005e4      0x1  ap_keylessentry.o [1]
    .data                inited   0x200005e5      0x1  ap_main.o [1]
    .data                inited   0x200005e6      0x1  hw_mcu.o [1]
    .data                inited   0x200005e7      0x1  hw_mcu.o [1]
    .data                inited   0x200005e8      0x1  hw_mcu.o [1]
    .data                inited   0x200005e9      0x1  hw_mcu.o [1]
                                - 0x200005ea    0x1aa

"P2", part 2 of 2:                             0x7110
  .bss                   zero     0x200005ec   0x2000  stf4_bsp_nvm.o [1]
  .bss                   zero     0x200025ec    0xa10  ap_eeprom.o [1]
  .bss                   zero     0x20002ffc    0x3fc  MX_Gtwy_Control.o [1]
  .bss                   zero     0x200033f8    0x3a8  stf4_bsp_adc.o [1]
  .bss                   zero     0x200037a0    0x300  stf4_bsp_can.o [1]
  .bss                   zero     0x20003aa0    0x300  stf4_bsp_can.o [1]
  .bss                   zero     0x20003da0    0x300  stf4_bsp_can.o [1]
  .bss                   zero     0x200040a0    0x300  stf4_bsp_can.o [1]
  .bss                   zero     0x200043a0    0x260  MX_Gtwy_Control.o [1]
  .bss                   zero     0x20004600    0x240  hw_can.o [1]
  .bss                   zero     0x20004840    0x200  stf4_bsp_com.o [1]
  .bss                   zero     0x20004a40    0x1f4  ap_gateway.o [1]
  .bss                   zero     0x20004c34    0x174  ap_deluxeG5.o [1]
  .bss                   zero     0x20004da8    0x174  ap_engine.o [1]
  .bss                   zero     0x20004f1c    0x100  ap_bsp.o [1]
  .bss                   zero     0x2000501c    0x100  stf4_bsp_com.o [1]
  .bss                   zero     0x2000511c    0x100  stf4_bsp_com.o [1]
  .bss                   zero     0x2000521c    0x100  stf4_bsp_com.o [1]
  .bss                   zero     0x2000531c    0x100  stf4_bsp_fin.o [1]
  .bss                   zero     0x2000541c    0x100  stf4_bsp_nvm.o [1]
  .bss                   zero     0x2000551c     0xa0  ap.o [1]
  .bss                   zero     0x200055bc     0xa0  ap_bservice_CAN04.o [1]
  .bss                   zero     0x2000565c     0xa0  ap_eeprom.o [1]
  .bss                   zero     0x200056fc     0x84  MX_Gtwy_Control.o [1]
  .bss                   zero     0x20005780     0x84  rand.o [3]
  .bss                   zero     0x20005804     0x78  ap.o [1]
  .bss                   zero     0x2000587c     0x64  ap_can.o [1]
  .bss                   zero     0x200058e0     0x64  ap_can.o [1]
  .bss                   zero     0x20005944     0x64  ap_can.o [1]
  .bss                   zero     0x200059a8     0x64  ap_deluxeG5.o [1]
  .bss                   zero     0x20005a0c     0x64  ap_dv.o [1]
  .bss                   zero     0x20005a70     0x60  ap_bservice.o [1]
  .bss                   zero     0x20005ad0     0x60  ap_gateway.o [1]
  .bss                   zero     0x20005b30     0x60  stf4_bsp_can.o [1]
  .bss                   zero     0x20005b90     0x60  stf4_bsp_com.o [1]
  .bss                   zero     0x20005bf0     0x50  ap_bservice_CAN04.o [1]
  .bss                   zero     0x20005c40     0x44  stf4_bsp_pwm.o [1]
  .bss                   zero     0x20005c84     0x44  stf4_bsp_pwm.o [1]
  .bss                   zero     0x20005cc8     0x40  ap.o [1]
  .bss                   zero     0x20005d08     0x40  stf4_bsp_nvm.o [1]
  .bss                   zero     0x20005d48     0x30  ap.o [1]
  .bss                   zero     0x20005d78     0x30  ap.o [1]
  .bss                   zero     0x20005da8     0x30  ap_bservice_CAN04.o [1]
  .bss                   zero     0x20005dd8     0x30  ap_bservice_CANOpen.o [1]
  .bss                   zero     0x20005e08     0x30  ap_bservice_CANOpen.o [1]
  .bss                   zero     0x20005e38     0x30  ap_bservice_CANOpen.o [1]
  .bss                   zero     0x20005e68     0x30  ap_bservice_CANStd.o [1]
  .bss                   zero     0x20005e98     0x30  ap_bservice_CANStd.o [1]
  .bss                   zero     0x20005ec8     0x30  ap_bservice_CANStd.o [1]
  .bss                   zero     0x20005ef8     0x30  ap_bservice_CANStd.o [1]
  .bss                   zero     0x20005f28     0x30  ap_bservice_CANStd.o [1]
  .bss                   zero     0x20005f58     0x30  ap_bservice_CANStd.o [1]
  .bss                   zero     0x20005f88     0x30  ap_bservice_CANStd.o [1]
  .bss                   zero     0x20005fb8     0x30  ap_bservice_CANStd.o [1]
  .bss                   zero     0x20005fe8     0x30  ap_bservice_CANStd.o [1]
  .bss                   zero     0x20006018     0x30  ap_can.o [1]
  .bss                   zero     0x20006048     0x30  ap_can.o [1]
  .bss                   zero     0x20006078     0x30  ap_can.o [1]
  .bss                   zero     0x200060a8     0x30  ap_can.o [1]
  .bss                   zero     0x200060d8     0x30  ap_can.o [1]
  .bss                   zero     0x20006108     0x30  ap_can.o [1]
  .bss                   zero     0x20006138     0x30  ap_can.o [1]
  .bss                   zero     0x20006168     0x30  ap_can.o [1]
  .bss                   zero     0x20006198     0x30  ap_can.o [1]
  .bss                   zero     0x200061c8     0x30  ap_can.o [1]
  .bss                   zero     0x200061f8     0x30  ap_can.o [1]
  .bss                   zero     0x20006228     0x30  ap_can.o [1]
  .bss                   zero     0x20006258     0x30  ap_can.o [1]
  .bss                   zero     0x20006288     0x30  ap_can.o [1]
  .bss                   zero     0x200062b8     0x30  ap_deluxeG5.o [1]
  .bss                   zero     0x200062e8     0x30  ap_deluxeG5.o [1]
  .bss                   zero     0x20006318     0x30  ap_deluxeG5.o [1]
  .bss                   zero     0x20006348     0x30  ap_deluxeG5.o [1]
  .bss                   zero     0x20006378     0x30  ap_deluxeG5.o [1]
  .bss                   zero     0x200063a8     0x30  ap_deluxeG5.o [1]
  .bss                   zero     0x200063d8     0x30  ap_deluxeG5.o [1]
  .bss                   zero     0x20006408     0x30  ap_deluxeG5.o [1]
  .bss                   zero     0x20006438     0x30  ap_deluxeG55.o [1]
  .bss                   zero     0x20006468     0x30  ap_deluxeG55.o [1]
  .bss                   zero     0x20006498     0x30  ap_deluxeG55.o [1]
  .bss                   zero     0x200064c8     0x30  ap_deluxeG55.o [1]
  .bss                   zero     0x200064f8     0x30  ap_engine.o [1]
  .bss                   zero     0x20006528     0x30  ap_engine.o [1]
  .bss                   zero     0x20006558     0x30  ap_engine.o [1]
  .bss                   zero     0x20006588     0x30  ap_engine.o [1]
  .bss                   zero     0x200065b8     0x30  ap_engine.o [1]
  .bss                   zero     0x200065e8     0x30  ap_engine.o [1]
  .bss                   zero     0x20006618     0x30  ap_engine.o [1]
  .bss                   zero     0x20006648     0x30  ap_engine.o [1]
  .bss                   zero     0x20006678     0x30  ap_engine.o [1]
  .bss                   zero     0x200066a8     0x30  ap_keylessentry.o [1]
  .bss                   zero     0x200066d8     0x30  ap_keylessentry.o [1]
  .bss                   zero     0x20006708     0x30  ap_keylessstart.o [1]
  .bss                   zero     0x20006738     0x28  ap.o [1]
  .bss                   zero     0x20006760     0x28  ap_can.o [1]
  .bss                   zero     0x20006788     0x28  ap_can.o [1]
  .bss                   zero     0x200067b0     0x28  ap_can.o [1]
  .bss                   zero     0x200067d8     0x28  ap_can.o [1]
  .bss                   zero     0x20006800     0x28  ap_can.o [1]
  .bss                   zero     0x20006828     0x28  ap_can.o [1]
  .bss                   zero     0x20006850     0x28  ap_can.o [1]
  .bss                   zero     0x20006878     0x28  ap_can.o [1]
  .bss                   zero     0x200068a0     0x28  ap_can.o [1]
  .bss                   zero     0x200068c8     0x28  ap_can.o [1]
  .bss                   zero     0x200068f0     0x28  ap_can.o [1]
  .bss                   zero     0x20006918     0x28  ap_can.o [1]
  .bss                   zero     0x20006940     0x28  ap_can.o [1]
  .bss                   zero     0x20006968     0x28  ap_can.o [1]
  .bss                   zero     0x20006990     0x28  ap_can.o [1]
  .bss                   zero     0x200069b8     0x28  ap_can.o [1]
  .bss                   zero     0x200069e0     0x28  ap_can.o [1]
  .bss                   zero     0x20006a08     0x28  ap_can.o [1]
  .bss                   zero     0x20006a30     0x28  ap_can.o [1]
  .bss                   zero     0x20006a58     0x28  ap_can.o [1]
  .bss                   zero     0x20006a80     0x28  ap_can.o [1]
  .bss                   zero     0x20006aa8     0x28  ap_can.o [1]
  .bss                   zero     0x20006ad0     0x28  ap_can.o [1]
  .bss                   zero     0x20006af8     0x28  ap_can.o [1]
  .bss                   zero     0x20006b20     0x28  ap_can.o [1]
  .bss                   zero     0x20006b48     0x28  ap_can.o [1]
  .bss                   zero     0x20006b70     0x28  ap_can.o [1]
  .bss                   zero     0x20006b98     0x28  ap_deluxeG5.o [1]
  .bss                   zero     0x20006bc0     0x28  ap_deluxeG5.o [1]
  .bss                   zero     0x20006be8     0x28  ap_deluxeG5.o [1]
  .bss                   zero     0x20006c10     0x28  ap_deluxeG5.o [1]
  .bss                   zero     0x20006c38     0x28  ap_deluxeG5.o [1]
  .bss                   zero     0x20006c60     0x28  ap_deluxeG55.o [1]
  .bss                   zero     0x20006c88     0x28  ap_deluxeG55.o [1]
  .bss                   zero     0x20006cb0     0x28  ap_deluxeG55.o [1]
  .bss                   zero     0x20006cd8     0x28  ap_eeprom.o [1]
  .bss                   zero     0x20006d00     0x28  ap_engine.o [1]
  .bss                   zero     0x20006d28     0x28  ap_engine.o [1]
  .bss                   zero     0x20006d50     0x28  ap_engine.o [1]
  .bss                   zero     0x20006d78     0x28  ap_engine.o [1]
  .bss                   zero     0x20006da0     0x28  ap_engine.o [1]
  .bss                   zero     0x20006dc8     0x28  ap_keylessentry.o [1]
  .bss                   zero     0x20006df0     0x28  ap_keylessstart.o [1]
  .bss                   zero     0x20006e18     0x20  ap_bservice.o [1]
  .bss                   zero     0x20006e38     0x20  ap_deluxeG5.o [1]
  .bss                   zero     0x20006e58     0x20  ap_dv.o [1]
  .bss                   zero     0x20006e78     0x20  ap_dv.o [1]
  .bss                   zero     0x20006e98     0x20  ap_dv.o [1]
  .bss                   zero     0x20006eb8     0x20  ap_hwt.o [1]
  .bss                   zero     0x20006ed8     0x20  ap_hwt.o [1]
  .bss                   zero     0x20006ef8     0x20  ap_hwt.o [1]
  .bss                   zero     0x20006f18     0x20  global.o [1]
  .bss                   zero     0x20006f38     0x20  stf4_bsp_nvm.o [1]
  .bss                   zero     0x20006f58     0x20  stf4_bsp_nvm.o [1]
  .bss                   zero     0x20006f78     0x20  stf4_bsp_nvm.o [1]
  .bss                   zero     0x20006f98     0x18  ap_eeprom.o [1]
  .bss                   zero     0x20006fb0     0x18  hw_can.o [1]
  .bss                   zero     0x20006fc8     0x18  stf4_iic.o [1]
  .bss                   zero     0x20006fe0     0x14  ap.o [1]
  .bss                   zero     0x20006ff4     0x14  ap_bservice_CANOpen.o [1]
  .bss                   zero     0x20007008     0x14  ap_can.o [1]
  .bss                   zero     0x2000701c     0x14  stf4_bsp_can.o [1]
  .bss                   zero     0x20007030     0x14  stf4_bsp_can.o [1]
  .bss                   zero     0x20007044     0x14  stf4_bsp_can.o [1]
  .bss                   zero     0x20007058     0x14  stf4_bsp_can.o [1]
  .bss                   zero     0x2000706c     0x14  stf4_bsp_din.o [1]
  .bss                   zero     0x20007080     0x10  ap_bservice_CAN04.o [1]
  .bss                   zero     0x20007090     0x10  ap_deluxeG5.o [1]
  .bss                   zero     0x200070a0     0x10  cancipher.o [1]
  .bss                   zero     0x200070b0     0x10  hw_can.o [1]
  .bss                   zero     0x200070c0     0x10  hw_can.o [1]
  .bss                   zero     0x200070d0     0x10  hw_can.o [1]
  .bss                   zero     0x200070e0     0x10  stf4_bsp_can.o [1]
  .bss                   zero     0x200070f0     0x10  stf4_bsp_can.o [1]
  .bss                   zero     0x20007100     0x10  stf4_bsp_can.o [1]
  .bss                   zero     0x20007110     0x10  stf4_bsp_can.o [1]
  .bss                   zero     0x20007120     0x10  stf4_bsp_dout.o [1]
  .bss                   zero     0x20007130      0xc  ap_bservice_CAN04.o [1]
  .bss                   zero     0x2000713c      0xc  ap_bservice_CAN04.o [1]
  .bss                   zero     0x20007148      0xc  ap_bservice_CANOpen.o [1]
  .bss                   zero     0x20007154      0xc  ap_bservice_CANOpen.o [1]
  .bss                   zero     0x20007160      0xc  ap_bservice_CANStd.o [1]
  .bss                   zero     0x2000716c      0xc  ap_bservice_CANStd.o [1]
  .bss                   zero     0x20007178      0xc  ap_can.o [1]
  .bss                   zero     0x20007184      0xc  ap_can.o [1]
  .bss                   zero     0x20007190      0xc  ap_deluxeG5.o [1]
  .bss                   zero     0x2000719c      0xc  ap_keylessentry.o [1]
  .bss                   zero     0x200071a8      0xc  stf4_bsp_ecuid.o [1]
  .bss                   zero     0x200071b4      0x8  ap_bservice_CANOpen.o [1]
  .bss                   zero     0x200071bc      0x8  ap_bservice_CANStd.o [1]
  .bss                   zero     0x200071c4      0x8  ap_bservice_CANStd.o [1]
  .bss                   zero     0x200071cc      0x8  ap_bservice_CANStd.o [1]
  .bss                   zero     0x200071d4      0x8  ap_bservice_CANStd.o [1]
  .bss                   zero     0x200071dc      0x8  ap_bservice_CANStd.o [1]
  .bss                   zero     0x200071e4      0x8  ap_bservice_CANStd.o [1]
  .bss                   zero     0x200071ec      0x8  ap_bservice_CANStd.o [1]
  .bss                   zero     0x200071f4      0x8  ap_bservice_CANStd.o [1]
  .bss                   zero     0x200071fc      0x8  ap_can.o [1]
  .bss                   zero     0x20007204      0x8  ap_can.o [1]
  .bss                   zero     0x2000720c      0x8  ap_deluxeG5.o [1]
  .bss                   zero     0x20007214      0x8  global.o [1]
  .bss                   zero     0x2000721c      0x8  global.o [1]
  .bss                   zero     0x20007224      0x8  global.o [1]
  .bss                   zero     0x2000722c      0x8  global.o [1]
  .bss                   zero     0x20007234      0x8  global.o [1]
  .bss                   zero     0x2000723c      0x8  global.o [1]
  .bss                   zero     0x20007244      0x8  global.o [1]
  .bss                   zero     0x2000724c      0x8  global.o [1]
  .bss                   zero     0x20007254      0x8  global.o [1]
  .bss                   zero     0x2000725c      0x8  hw_can.o [1]
  .bss                   zero     0x20007264      0x8  hw_dio.o [1]
  .bss                   zero     0x20007270      0x8  MX_Gtwy_Control.o [1]
  .bss                   zero     0x20007278      0x8  nvm_ecuid.o [1]
  .bss                   zero     0x20007280      0x4  ap_bservice_CAN04.o [1]
  .bss                   zero     0x20007284      0x4  ap_bservice_CANOpen.o [1]
  .bss                   zero     0x20007288      0x4  ap_bservice_CANOpen.o [1]
  .bss                   zero     0x2000728c      0x4  ap_bservice_dv.o [1]
  .bss                   zero     0x20007290      0x4  ap_bsp.o [1]
  .bss                   zero     0x20007294      0x4  ap_bsp.o [1]
  .bss                   zero     0x20007298      0x4  ap_cdata.o [1]
  .bss                   zero     0x2000729c      0x4  ap_cdata.o [1]
  .bss                   zero     0x200072a0      0x4  ap_cdata.o [1]
  .bss                   zero     0x200072a4      0x4  ap_cdata.o [1]
  .bss                   zero     0x200072a8      0x4  ap_cdata.o [1]
  .bss                   zero     0x200072ac      0x4  ap_cdata.o [1]
  .bss                   zero     0x200072b0      0x4  ap_cdata.o [1]
  .bss                   zero     0x200072b4      0x4  ap_cdata.o [1]
  .bss                   zero     0x200072b8      0x4  ap_cdata.o [1]
  .bss                   zero     0x200072bc      0x4  ap_cdata.o [1]
  .bss                   zero     0x200072c0      0x4  ap_cdata.o [1]
  .bss                   zero     0x200072c4      0x4  ap_cdata.o [1]
  .bss                   zero     0x200072c8      0x4  ap_cdata.o [1]
  .bss                   zero     0x200072cc      0x4  ap_cdata.o [1]
  .bss                   zero     0x200072d0      0x4  ap_cdata.o [1]
  .bss                   zero     0x200072d4      0x4  ap_cdata.o [1]
  .bss                   zero     0x200072d8      0x4  ap_cdata.o [1]
  .bss                   zero     0x200072dc      0x4  ap_cdata.o [1]
  .bss                   zero     0x200072e0      0x4  ap_cdata.o [1]
  .bss                   zero     0x200072e4      0x4  ap_cdata.o [1]
  .bss                   zero     0x200072e8      0x4  ap_cdata.o [1]
  .bss                   zero     0x200072ec      0x4  ap_cdata.o [1]
  .bss                   zero     0x200072f0      0x4  ap_cdata.o [1]
  .bss                   zero     0x200072f4      0x4  ap_cdata.o [1]
  .bss                   zero     0x200072f8      0x4  ap_cdata.o [1]
  .bss                   zero     0x200072fc      0x4  ap_cdata.o [1]
  .bss                   zero     0x20007300      0x4  ap_cdata.o [1]
  .bss                   zero     0x20007304      0x4  ap_cdata.o [1]
  .bss                   zero     0x20007308      0x4  ap_cdata.o [1]
  .bss                   zero     0x2000730c      0x4  ap_cdata.o [1]
  .bss                   zero     0x20007310      0x4  ap_cdata.o [1]
  .bss                   zero     0x20007314      0x4  ap_cdata.o [1]
  .bss                   zero     0x20007318      0x4  ap_cdata.o [1]
  .bss                   zero     0x2000731c      0x4  ap_cdata.o [1]
  .bss                   zero     0x20007320      0x4  ap_cdata.o [1]
  .bss                   zero     0x20007324      0x4  ap_cdata.o [1]
  .bss                   zero     0x20007328      0x4  ap_cdata.o [1]
  .bss                   zero     0x2000732c      0x4  ap_cdata.o [1]
  .bss                   zero     0x20007330      0x4  ap_cdata.o [1]
  .bss                   zero     0x20007334      0x4  ap_cdata.o [1]
  .bss                   zero     0x20007338      0x4  ap_cdata.o [1]
  .bss                   zero     0x2000733c      0x4  ap_cdata.o [1]
  .bss                   zero     0x20007340      0x4  ap_cdata.o [1]
  .bss                   zero     0x20007344      0x4  ap_cdata.o [1]
  .bss                   zero     0x20007348      0x4  ap_cdata.o [1]
  .bss                   zero     0x2000734c      0x4  ap_cdata.o [1]
  .bss                   zero     0x20007350      0x4  ap_cdata.o [1]
  .bss                   zero     0x20007354      0x4  ap_cdata.o [1]
  .bss                   zero     0x20007358      0x4  ap_cdata.o [1]
  .bss                   zero     0x2000735c      0x4  ap_cdata.o [1]
  .bss                   zero     0x20007360      0x4  ap_cdata.o [1]
  .bss                   zero     0x20007364      0x4  ap_cdata.o [1]
  .bss                   zero     0x20007368      0x4  ap_cdata.o [1]
  .bss                   zero     0x2000736c      0x4  ap_cdata.o [1]
  .bss                   zero     0x20007370      0x4  ap_cdata.o [1]
  .bss                   zero     0x20007374      0x4  ap_cdata.o [1]
  .bss                   zero     0x20007378      0x4  ap_cdata.o [1]
  .bss                   zero     0x2000737c      0x4  ap_cdata.o [1]
  .bss                   zero     0x20007380      0x4  ap_cdata.o [1]
  .bss                   zero     0x20007384      0x4  ap_cdata.o [1]
  .bss                   zero     0x20007388      0x4  ap_cdata.o [1]
  .bss                   zero     0x2000738c      0x4  ap_cdata.o [1]
  .bss                   zero     0x20007390      0x4  ap_cdata.o [1]
  .bss                   zero     0x20007394      0x4  ap_cdata.o [1]
  .bss                   zero     0x20007398      0x4  ap_cdata.o [1]
  .bss                   zero     0x2000739c      0x4  ap_cdata.o [1]
  .bss                   zero     0x200073a0      0x4  ap_cdata.o [1]
  .bss                   zero     0x200073a4      0x4  ap_cdata.o [1]
  .bss                   zero     0x200073a8      0x4  ap_cdata.o [1]
  .bss                   zero     0x200073ac      0x4  ap_deluxeG55.o [1]
  .bss                   zero     0x200073b0      0x4  ap_deluxeG55.o [1]
  .bss                   zero     0x200073b4      0x4  ap_eeprom.o [1]
  .bss                   zero     0x200073b8      0x4  ap_eeprom.o [1]
  .bss                   zero     0x200073bc      0x4  ap_gateway.o [1]
  .bss                   zero     0x200073c0      0x4  ap_keylessentry.o [1]
  .bss                   zero     0x200073c4      0x4  ap_subs.o [1]
  .bss                   zero     0x200073c8      0x4  ap_subs.o [1]
  .bss                   zero     0x200073cc      0x4  global.o [1]
  .bss                   zero     0x200073d0      0x4  global.o [1]
  .bss                   zero     0x200073d4      0x4  global.o [1]
  .bss                   zero     0x200073d8      0x4  global.o [1]
  .bss                   zero     0x200073dc      0x4  global.o [1]
  .bss                   zero     0x200073e0      0x4  global.o [1]
  .bss                   zero     0x200073e4      0x4  global.o [1]
  .bss                   zero     0x200073e8      0x4  hw_can_txq.o [1]
  .bss                   zero     0x200073ec      0x4  hw_can_txq.o [1]
  .bss                   zero     0x200073f0      0x4  hw_dio.o [1]
  .bss                   zero     0x200073f4      0x4  hw_fin.o [1]
  .bss                   zero     0x200073f8      0x4  hw_mcu.o [1]
  .bss                   zero     0x200073fc      0x4  stf4_bsp_clock.o [1]
  .bss                   zero     0x20007400      0x4  stf4_bsp_clock.o [1]
  .bss                   zero     0x20007404      0x4  stf4_bsp_clock.o [1]
  .bss                   zero     0x20007408      0x4  stf4_bsp_clock.o [1]
  .bss                   zero     0x2000740c      0x4  stf4_bsp_mcu.o [1]
  .bss                   zero     0x20007410      0x4  stf4_bsp_mcu.o [1]
  .bss                   zero     0x20007414      0x4  stf4_bsp_mcu.o [1]
  .bss                   zero     0x20007418      0x4  stf4_bsp_mcu.o [1]
  .bss                   zero     0x2000741c      0x4  stf4_bsp_mcu.o [1]
  .bss                   zero     0x20007420      0x4  stf4_bsp_mcu.o [1]
  .bss                   zero     0x20007424      0x4  stf4_bsp_mcu.o [1]
  .bss                   zero     0x20007428      0x4  stf4_bsp_mcu.o [1]
  .bss                   zero     0x2000742c      0x4  stf4_bsp_mcu.o [1]
  .bss                   zero     0x20007430      0x4  stf4_bsp_mcu.o [1]
  .bss                   zero     0x20007434      0x4  stf4_bsp_rtc.o [1]
  .bss                   zero     0x20007438      0x4  stf4_bsp_rtc.o [1]
  .bss                   zero     0x2000743c      0x4  stf4_bsp_sdata.o [1]
  .bss                   zero     0x20007440      0x4  stf4_bsp_sdata.o [1]
  .bss                   zero     0x20007444      0x4  stf4_vectors.o [1]
  .bss                   zero     0x20007448      0x4  stf4_vectors.o [1]
  .bss                   zero     0x2000744c      0x4  xfail_s.o [3]
  .bss                   zero     0x20007450      0x2  ap_bservice_CAN04.o [1]
  .bss                   zero     0x20007452      0x2  ap_bservice_CAN04.o [1]
  .bss                   zero     0x20007454      0x2  ap_bservice_CAN04.o [1]
  .bss                   zero     0x20007456      0x2  ap_bservice_CANOpen.o [1]
  .bss                   zero     0x20007458      0x2  ap_bservice_CANOpen.o [1]
  .bss                   zero     0x2000745a      0x2  ap_bservice_CANOpen.o [1]
  .bss                   zero     0x2000745c      0x2  ap_bservice_CANOpen.o [1]
  .bss                   zero     0x2000745e      0x2  ap_bservice_CANOpen.o [1]
  .bss                   zero     0x20007460      0x2  ap_bservice_CANOpen.o [1]
  .bss                   zero     0x20007462      0x2  ap_bservice_CANStd.o [1]
  .bss                   zero     0x20007464      0x2  ap_bservice_CANStd.o [1]
  .bss                   zero     0x20007466      0x2  ap_bservice_prog.o [1]
  .bss                   zero     0x20007468      0x2  ap_can.o [1]
  .bss                   zero     0x2000746a      0x2  ap_deluxeG5.o [1]
  .bss                   zero     0x2000746c      0x2  ap_deluxeG55.o [1]
  .bss                   zero     0x2000746e      0x2  ap_deluxeG55.o [1]
  .bss                   zero     0x20007470      0x2  ap_dv.o [1]
  .bss                   zero     0x20007472      0x2  ap_dv.o [1]
  .bss                   zero     0x20007474      0x2  ap_dv.o [1]
  .bss                   zero     0x20007476      0x2  ap_dv.o [1]
  .bss                   zero     0x20007478      0x2  ap_dv.o [1]
  .bss                   zero     0x2000747a      0x2  ap_dv.o [1]
  .bss                   zero     0x2000747c      0x2  ap_eeprom.o [1]
  .bss                   zero     0x2000747e      0x2  ap_eeprom.o [1]
  .bss                   zero     0x20007480      0x2  ap_eeprom.o [1]
  .bss                   zero     0x20007482      0x2  ap_eeprom.o [1]
  .bss                   zero     0x20007484      0x2  ap_engine.o [1]
  .bss                   zero     0x20007486      0x2  ap_hwt.o [1]
  .bss                   zero     0x20007488      0x2  ap_hwt.o [1]
  .bss                   zero     0x2000748a      0x2  ap_hwt.o [1]
  .bss                   zero     0x2000748c      0x2  ap_hwt.o [1]
  .bss                   zero     0x2000748e      0x2  ap_hwt.o [1]
  .bss                   zero     0x20007490      0x2  ap_keylessentry.o [1]
  .bss                   zero     0x20007492      0x2  ap_main.o [1]
  .bss                   zero     0x20007494      0x2  ap_main.o [1]
  .bss                   zero     0x20007496      0x2  ap_main.o [1]
  .bss                   zero     0x20007498      0x2  ap_main.o [1]
  .bss                   zero     0x2000749a      0x2  ap_main.o [1]
  .bss                   zero     0x2000749c      0x2  ap_main.o [1]
  .bss                   zero     0x2000749e      0x2  ap_main.o [1]
  .bss                   zero     0x200074a0      0x2  ap_main.o [1]
  .bss                   zero     0x200074a2      0x2  ap_main.o [1]
  .bss                   zero     0x200074a4      0x2  ap_subs.o [1]
  .bss                   zero     0x200074a6      0x2  ap_subs.o [1]
  .bss                   zero     0x200074a8      0x2  ap_subs.o [1]
  .bss                   zero     0x200074aa      0x2  global.o [1]
  .bss                   zero     0x200074ac      0x2  global.o [1]
  .bss                   zero     0x200074ae      0x2  global.o [1]
  .bss                   zero     0x200074b0      0x2  global.o [1]
  .bss                   zero     0x200074b2      0x2  global.o [1]
  .bss                   zero     0x200074b4      0x2  global.o [1]
  .bss                   zero     0x200074b6      0x2  global.o [1]
  .bss                   zero     0x200074b8      0x2  global.o [1]
  .bss                   zero     0x200074ba      0x2  global.o [1]
  .bss                   zero     0x200074bc      0x2  global.o [1]
  .bss                   zero     0x200074be      0x2  global.o [1]
  .bss                   zero     0x200074c0      0x2  global.o [1]
  .bss                   zero     0x200074c2      0x2  global.o [1]
  .bss                   zero     0x200074c4      0x2  global.o [1]
  .bss                   zero     0x200074c6      0x2  global.o [1]
  .bss                   zero     0x200074c8      0x2  global.o [1]
  .bss                   zero     0x200074ca      0x2  global.o [1]
  .bss                   zero     0x200074cc      0x2  global.o [1]
  .bss                   zero     0x200074ce      0x2  global.o [1]
  .bss                   zero     0x200074d0      0x2  global.o [1]
  .bss                   zero     0x200074d2      0x2  global.o [1]
  .bss                   zero     0x200074d4      0x2  global.o [1]
  .bss                   zero     0x200074d6      0x2  global.o [1]
  .bss                   zero     0x200074d8      0x2  global.o [1]
  .bss                   zero     0x200074da      0x2  global.o [1]
  .bss                   zero     0x200074dc      0x2  global.o [1]
  .bss                   zero     0x200074de      0x2  global.o [1]
  .bss                   zero     0x200074e0      0x2  global.o [1]
  .bss                   zero     0x200074e2      0x2  global.o [1]
  .bss                   zero     0x200074e4      0x2  global.o [1]
  .bss                   zero     0x200074e6      0x2  global.o [1]
  .bss                   zero     0x200074e8      0x2  global.o [1]
  .bss                   zero     0x200074ea      0x2  global.o [1]
  .bss                   zero     0x200074ec      0x2  global.o [1]
  .bss                   zero     0x200074ee      0x2  global.o [1]
  .bss                   zero     0x200074f0      0x2  global.o [1]
  .bss                   zero     0x200074f2      0x2  global.o [1]
  .bss                   zero     0x200074f4      0x2  global.o [1]
  .bss                   zero     0x200074f6      0x2  global.o [1]
  .bss                   zero     0x200074f8      0x2  global.o [1]
  .bss                   zero     0x200074fa      0x2  global.o [1]
  .bss                   zero     0x200074fc      0x2  global.o [1]
  .bss                   zero     0x200074fe      0x2  global.o [1]
  .bss                   zero     0x20007500      0x2  global.o [1]
  .bss                   zero     0x20007502      0x2  global.o [1]
  .bss                   zero     0x20007504      0x2  global.o [1]
  .bss                   zero     0x20007506      0x2  global.o [1]
  .bss                   zero     0x20007508      0x2  global.o [1]
  .bss                   zero     0x2000750a      0x2  global.o [1]
  .bss                   zero     0x2000750c      0x2  global.o [1]
  .bss                   zero     0x2000750e      0x2  global.o [1]
  .bss                   zero     0x20007510      0x2  global.o [1]
  .bss                   zero     0x20007512      0x2  global.o [1]
  .bss                   zero     0x20007514      0x2  global.o [1]
  .bss                   zero     0x20007516      0x2  global.o [1]
  .bss                   zero     0x20007518      0x2  global.o [1]
  .bss                   zero     0x2000751a      0x2  hw_can_txq.o [1]
  .bss                   zero     0x2000751c      0x2  hw_io.o [1]
  .bss                   zero     0x2000751e      0x2  hw_nvm.o [1]
  .bss                   zero     0x20007520      0x2  hw_nvm.o [1]
  .bss                   zero     0x20007522      0x2  MX_Gtwy_Control.o [1]
  .bss                   zero     0x20007524      0x2  MX_Gtwy_Control.o [1]
  .bss                   zero     0x20007526      0x2  MX_Gtwy_Control.o [1]
  .bss                   zero     0x20007528      0x2  MX_Gtwy_Control.o [1]
  .bss                   zero     0x2000752a      0x2  MX_Gtwy_Control.o [1]
  .bss                   zero     0x2000752c      0x2  MX_Gtwy_Control.o [1]
  .bss                   zero     0x2000752e      0x2  MX_Gtwy_Control.o [1]
  .bss                   zero     0x20007530      0x2  MX_Gtwy_Control.o [1]
  .bss                   zero     0x20007532      0x2  MX_Gtwy_Control.o [1]
  .bss                   zero     0x20007534      0x2  MX_Gtwy_Control.o [1]
  .bss                   zero     0x20007536      0x2  MX_Gtwy_Control.o [1]
  .bss                   zero     0x20007538      0x2  MX_Gtwy_Control.o [1]
  .bss                   zero     0x2000753a      0x2  MX_Gtwy_Control.o [1]
  .bss                   zero     0x2000753c      0x2  MX_Gtwy_Control.o [1]
  .bss                   zero     0x2000753e      0x2  MX_Gtwy_Control.o [1]
  .bss                   zero     0x20007540      0x2  MX_Gtwy_Control.o [1]
  .bss                   zero     0x20007542      0x2  MX_Gtwy_Control.o [1]
  .bss                   zero     0x20007544      0x2  MX_Gtwy_Control.o [1]
  .bss                   zero     0x20007546      0x2  MX_Gtwy_Control.o [1]
  .bss                   zero     0x20007548      0x2  MX_Gtwy_Control.o [1]
  .bss                   zero     0x2000754a      0x2  MX_Gtwy_Control.o [1]
  .bss                   zero     0x2000754c      0x2  MX_Gtwy_Control.o [1]
  .bss                   zero     0x2000754e      0x2  MX_Gtwy_Control.o [1]
  .bss                   zero     0x20007550      0x2  MX_Gtwy_Control.o [1]
  .bss                   zero     0x20007552      0x2  MX_Gtwy_Control.o [1]
  .bss                   zero     0x20007554      0x2  MX_Gtwy_Control.o [1]
  .bss                   zero     0x20007556      0x2  MX_Gtwy_Control.o [1]
  .bss                   zero     0x20007558      0x2  MX_Gtwy_Control.o [1]
  .bss                   zero     0x2000755a      0x2  MX_Gtwy_Control.o [1]
  .bss                   zero     0x2000755c      0x2  MX_Gtwy_Control.o [1]
  .bss                   zero     0x2000755e      0x2  MX_Gtwy_Control.o [1]
  .bss                   zero     0x20007560      0x2  MX_Gtwy_Control.o [1]
  .bss                   zero     0x20007562      0x2  MX_Gtwy_Control.o [1]
  .bss                   zero     0x20007564      0x2  MX_Gtwy_Control.o [1]
  .bss                   zero     0x20007566      0x2  MX_Gtwy_Control.o [1]
  .bss                   zero     0x20007568      0x2  MX_Gtwy_Control.o [1]
  .bss                   zero     0x2000756a      0x2  MX_Gtwy_Control.o [1]
  .bss                   zero     0x2000756c      0x2  MX_Gtwy_Control.o [1]
  .bss                   zero     0x2000756e      0x2  MX_Gtwy_Control.o [1]
  .bss                   zero     0x20007570      0x2  MX_Gtwy_Control.o [1]
  .bss                   zero     0x20007572      0x2  MX_Gtwy_Control.o [1]
  .bss                   zero     0x20007574      0x2  MX_Gtwy_Control.o [1]
  .bss                   zero     0x20007576      0x2  MX_Gtwy_Control.o [1]
  .bss                   zero     0x20007578      0x2  MX_Gtwy_Control.o [1]
  .bss                   zero     0x2000757a      0x2  MX_Gtwy_Control.o [1]
  .bss                   zero     0x2000757c      0x2  MX_Gtwy_Control.o [1]
  .bss                   zero     0x2000757e      0x2  MX_Gtwy_Control.o [1]
  .bss                   zero     0x20007580      0x2  MX_Gtwy_Control.o [1]
  .bss                   zero     0x20007582      0x2  MX_Gtwy_Control.o [1]
  .bss                   zero     0x20007584      0x2  MX_Gtwy_Control.o [1]
  .bss                   zero     0x20007586      0x2  MX_Gtwy_Control.o [1]
  .bss                   zero     0x20007588      0x2  MX_Gtwy_Control.o [1]
  .bss                   zero     0x2000758a      0x2  MX_Gtwy_Control.o [1]
  .bss                   zero     0x2000758c      0x2  MX_Gtwy_Control.o [1]
  .bss                   zero     0x2000758e      0x2  MX_Gtwy_Control.o [1]
  .bss                   zero     0x20007590      0x2  MX_Gtwy_Control.o [1]
  .bss                   zero     0x20007592      0x2  MX_Gtwy_Control.o [1]
  .bss                   zero     0x20007594      0x2  MX_Gtwy_Control.o [1]
  .bss                   zero     0x20007596      0x2  MX_Gtwy_Control.o [1]
  .bss                   zero     0x20007598      0x2  MX_Gtwy_Control.o [1]
  .bss                   zero     0x2000759a      0x2  MX_Gtwy_Control.o [1]
  .bss                   zero     0x2000759c      0x2  MX_Gtwy_Control.o [1]
  .bss                   zero     0x2000759e      0x2  MX_Gtwy_Control.o [1]
  .bss                   zero     0x200075a0      0x2  MX_Gtwy_Control.o [1]
  .bss                   zero     0x200075a2      0x2  SendMsgNow.o [1]
  .bss                   zero     0x200075a4      0x1  ap_bservice.o [1]
  .bss                   zero     0x200075a5      0x1  ap_bservice.o [1]
  .bss                   zero     0x200075a6      0x1  ap_bservice.o [1]
  .bss                   zero     0x200075a7      0x1  ap_bservice_CAN04.o [1]
  .bss                   zero     0x200075a8      0x1  ap_bservice_CAN04.o [1]
  .bss                   zero     0x200075a9      0x1  ap_bservice_CAN04.o [1]
  .bss                   zero     0x200075aa      0x1  ap_bservice_CAN04.o [1]
  .bss                   zero     0x200075ab      0x1  ap_bservice_CAN04.o [1]
  .bss                   zero     0x200075ac      0x1  ap_bservice_CAN04.o [1]
  .bss                   zero     0x200075ad      0x1  ap_bservice_CAN04.o [1]
  .bss                   zero     0x200075ae      0x1  ap_bservice_prog.o [1]
  .bss                   zero     0x200075af      0x1  ap_can.o [1]
  .bss                   zero     0x200075b0      0x1  ap_can.o [1]
  .bss                   zero     0x200075b1      0x1  ap_can.o [1]
  .bss                   zero     0x200075b2      0x1  ap_can.o [1]
  .bss                   zero     0x200075b3      0x1  ap_can.o [1]
  .bss                   zero     0x200075b4      0x1  ap_can.o [1]
  .bss                   zero     0x200075b5      0x1  ap_can.o [1]
  .bss                   zero     0x200075b6      0x1  ap_can.o [1]
  .bss                   zero     0x200075b7      0x1  ap_can.o [1]
  .bss                   zero     0x200075b8      0x1  ap_can.o [1]
  .bss                   zero     0x200075b9      0x1  ap_can.o [1]
  .bss                   zero     0x200075ba      0x1  ap_can.o [1]
  .bss                   zero     0x200075bb      0x1  ap_can.o [1]
  .bss                   zero     0x200075bc      0x1  ap_deluxeG5.o [1]
  .bss                   zero     0x200075bd      0x1  ap_deluxeG5.o [1]
  .bss                   zero     0x200075be      0x1  ap_deluxeG5.o [1]
  .bss                   zero     0x200075bf      0x1  ap_deluxeG5.o [1]
  .bss                   zero     0x200075c0      0x1  ap_deluxeG5.o [1]
  .bss                   zero     0x200075c1      0x1  ap_deluxeG5.o [1]
  .bss                   zero     0x200075c2      0x1  ap_deluxeG5.o [1]
  .bss                   zero     0x200075c3      0x1  ap_deluxeG5.o [1]
  .bss                   zero     0x200075c4      0x1  ap_deluxeG5.o [1]
  .bss                   zero     0x200075c5      0x1  ap_deluxeG5.o [1]
  .bss                   zero     0x200075c6      0x1  ap_deluxeG5.o [1]
  .bss                   zero     0x200075c7      0x1  ap_deluxeG5.o [1]
  .bss                   zero     0x200075c8      0x1  ap_deluxeG5.o [1]
  .bss                   zero     0x200075c9      0x1  ap_deluxeG5.o [1]
  .bss                   zero     0x200075ca      0x1  ap_deluxeG5.o [1]
  .bss                   zero     0x200075cb      0x1  ap_deluxeG5.o [1]
  .bss                   zero     0x200075cc      0x1  ap_deluxeG5.o [1]
  .bss                   zero     0x200075cd      0x1  ap_deluxeG55.o [1]
  .bss                   zero     0x200075ce      0x1  ap_deluxeG55.o [1]
  .bss                   zero     0x200075cf      0x1  ap_deluxeG55.o [1]
  .bss                   zero     0x200075d0      0x1  ap_deluxeG55.o [1]
  .bss                   zero     0x200075d1      0x1  ap_deluxeG55.o [1]
  .bss                   zero     0x200075d2      0x1  ap_deluxeG55.o [1]
  .bss                   zero     0x200075d3      0x1  ap_deluxeG55.o [1]
  .bss                   zero     0x200075d4      0x1  ap_deluxeG55.o [1]
  .bss                   zero     0x200075d5      0x1  ap_deluxeG55.o [1]
  .bss                   zero     0x200075d6      0x1  ap_deluxeG55.o [1]
  .bss                   zero     0x200075d7      0x1  ap_dv.o [1]
  .bss                   zero     0x200075d8      0x1  ap_dv.o [1]
  .bss                   zero     0x200075d9      0x1  ap_dv.o [1]
  .bss                   zero     0x200075da      0x1  ap_dv.o [1]
  .bss                   zero     0x200075db      0x1  ap_dv.o [1]
  .bss                   zero     0x200075dc      0x1  ap_dv.o [1]
  .bss                   zero     0x200075dd      0x1  ap_dv.o [1]
  .bss                   zero     0x200075de      0x1  ap_eeprom.o [1]
  .bss                   zero     0x200075df      0x1  ap_eeprom.o [1]
  .bss                   zero     0x200075e0      0x1  ap_eeprom.o [1]
  .bss                   zero     0x200075e1      0x1  ap_eeprom.o [1]
  .bss                   zero     0x200075e2      0x1  ap_eeprom.o [1]
  .bss                   zero     0x200075e3      0x1  ap_eeprom.o [1]
  .bss                   zero     0x200075e4      0x1  ap_eeprom.o [1]
  .bss                   zero     0x200075e5      0x1  ap_engine.o [1]
  .bss                   zero     0x200075e6      0x1  ap_keylessentry.o [1]
  .bss                   zero     0x200075e7      0x1  ap_keylessentry.o [1]
  .bss                   zero     0x200075e8      0x1  ap_keylessentry.o [1]
  .bss                   zero     0x200075e9      0x1  ap_keylessentry.o [1]
  .bss                   zero     0x200075ea      0x1  ap_keylessentry.o [1]
  .bss                   zero     0x200075eb      0x1  ap_keylessentry.o [1]
  .bss                   zero     0x200075ec      0x1  ap_keylessstart.o [1]
  .bss                   zero     0x200075ed      0x1  ap_main.o [1]
  .bss                   zero     0x200075ee      0x1  ap_main.o [1]
  .bss                   zero     0x200075ef      0x1  ap_main.o [1]
  .bss                   zero     0x200075f0      0x1  ap_main.o [1]
  .bss                   zero     0x200075f1      0x1  ap_main.o [1]
  .bss                   zero     0x200075f2      0x1  ap_main.o [1]
  .bss                   zero     0x200075f3      0x1  ap_main.o [1]
  .bss                   zero     0x200075f4      0x1  ap_subs.o [1]
  .bss                   zero     0x200075f5      0x1  ap_subs.o [1]
  .bss                   zero     0x200075f6      0x1  ap_subs.o [1]
  .bss                   zero     0x200075f7      0x1  ap_subs.o [1]
  .bss                   zero     0x200075f8      0x1  ap_subs.o [1]
  .bss                   zero     0x200075f9      0x1  ap_subs.o [1]
  .bss                   zero     0x200075fa      0x1  ap_subs.o [1]
  .bss                   zero     0x200075fb      0x1  ap_subs.o [1]
  .bss                   zero     0x200075fc      0x1  global.o [1]
  .bss                   zero     0x200075fd      0x1  global.o [1]
  .bss                   zero     0x200075fe      0x1  global.o [1]
  .bss                   zero     0x200075ff      0x1  global.o [1]
  .bss                   zero     0x20007600      0x1  global.o [1]
  .bss                   zero     0x20007601      0x1  global.o [1]
  .bss                   zero     0x20007602      0x1  global.o [1]
  .bss                   zero     0x20007603      0x1  global.o [1]
  .bss                   zero     0x20007604      0x1  global.o [1]
  .bss                   zero     0x20007605      0x1  global.o [1]
  .bss                   zero     0x20007606      0x1  global.o [1]
  .bss                   zero     0x20007607      0x1  global.o [1]
  .bss                   zero     0x20007608      0x1  global.o [1]
  .bss                   zero     0x20007609      0x1  global.o [1]
  .bss                   zero     0x2000760a      0x1  global.o [1]
  .bss                   zero     0x2000760b      0x1  global.o [1]
  .bss                   zero     0x2000760c      0x1  global.o [1]
  .bss                   zero     0x2000760d      0x1  global.o [1]
  .bss                   zero     0x2000760e      0x1  global.o [1]
  .bss                   zero     0x2000760f      0x1  global.o [1]
  .bss                   zero     0x20007610      0x1  global.o [1]
  .bss                   zero     0x20007611      0x1  global.o [1]
  .bss                   zero     0x20007612      0x1  global.o [1]
  .bss                   zero     0x20007613      0x1  global.o [1]
  .bss                   zero     0x20007614      0x1  global.o [1]
  .bss                   zero     0x20007615      0x1  global.o [1]
  .bss                   zero     0x20007616      0x1  global.o [1]
  .bss                   zero     0x20007617      0x1  global.o [1]
  .bss                   zero     0x20007618      0x1  global.o [1]
  .bss                   zero     0x20007619      0x1  global.o [1]
  .bss                   zero     0x2000761a      0x1  global.o [1]
  .bss                   zero     0x2000761b      0x1  global.o [1]
  .bss                   zero     0x2000761c      0x1  global.o [1]
  .bss                   zero     0x2000761d      0x1  global.o [1]
  .bss                   zero     0x2000761e      0x1  global.o [1]
  .bss                   zero     0x2000761f      0x1  global.o [1]
  .bss                   zero     0x20007620      0x1  global.o [1]
  .bss                   zero     0x20007621      0x1  global.o [1]
  .bss                   zero     0x20007622      0x1  global.o [1]
  .bss                   zero     0x20007623      0x1  global.o [1]
  .bss                   zero     0x20007624      0x1  global.o [1]
  .bss                   zero     0x20007625      0x1  global.o [1]
  .bss                   zero     0x20007626      0x1  global.o [1]
  .bss                   zero     0x20007627      0x1  global.o [1]
  .bss                   zero     0x20007628      0x1  global.o [1]
  .bss                   zero     0x20007629      0x1  global.o [1]
  .bss                   zero     0x2000762a      0x1  global.o [1]
  .bss                   zero     0x2000762b      0x1  global.o [1]
  .bss                   zero     0x2000762c      0x1  global.o [1]
  .bss                   zero     0x2000762d      0x1  global.o [1]
  .bss                   zero     0x2000762e      0x1  global.o [1]
  .bss                   zero     0x2000762f      0x1  global.o [1]
  .bss                   zero     0x20007630      0x1  global.o [1]
  .bss                   zero     0x20007631      0x1  global.o [1]
  .bss                   zero     0x20007632      0x1  global.o [1]
  .bss                   zero     0x20007633      0x1  global.o [1]
  .bss                   zero     0x20007634      0x1  global.o [1]
  .bss                   zero     0x20007635      0x1  global.o [1]
  .bss                   zero     0x20007636      0x1  global.o [1]
  .bss                   zero     0x20007637      0x1  global.o [1]
  .bss                   zero     0x20007638      0x1  global.o [1]
  .bss                   zero     0x20007639      0x1  global.o [1]
  .bss                   zero     0x2000763a      0x1  global.o [1]
  .bss                   zero     0x2000763b      0x1  global.o [1]
  .bss                   zero     0x2000763c      0x1  global.o [1]
  .bss                   zero     0x2000763d      0x1  global.o [1]
  .bss                   zero     0x2000763e      0x1  global.o [1]
  .bss                   zero     0x2000763f      0x1  global.o [1]
  .bss                   zero     0x20007640      0x1  global.o [1]
  .bss                   zero     0x20007641      0x1  global.o [1]
  .bss                   zero     0x20007642      0x1  global.o [1]
  .bss                   zero     0x20007643      0x1  global.o [1]
  .bss                   zero     0x20007644      0x1  global.o [1]
  .bss                   zero     0x20007645      0x1  global.o [1]
  .bss                   zero     0x20007646      0x1  global.o [1]
  .bss                   zero     0x20007647      0x1  global.o [1]
  .bss                   zero     0x20007648      0x1  global.o [1]
  .bss                   zero     0x20007649      0x1  global.o [1]
  .bss                   zero     0x2000764a      0x1  global.o [1]
  .bss                   zero     0x2000764b      0x1  global.o [1]
  .bss                   zero     0x2000764c      0x1  global.o [1]
  .bss                   zero     0x2000764d      0x1  global.o [1]
  .bss                   zero     0x2000764e      0x1  global.o [1]
  .bss                   zero     0x2000764f      0x1  global.o [1]
  .bss                   zero     0x20007650      0x1  global.o [1]
  .bss                   zero     0x20007651      0x1  global.o [1]
  .bss                   zero     0x20007652      0x1  global.o [1]
  .bss                   zero     0x20007653      0x1  global.o [1]
  .bss                   zero     0x20007654      0x1  global.o [1]
  .bss                   zero     0x20007655      0x1  global.o [1]
  .bss                   zero     0x20007656      0x1  hw_mcu.o [1]
  .bss                   zero     0x20007657      0x1  hw_mcu.o [1]
  .bss                   zero     0x20007658      0x1  hw_nvm.o [1]
  .bss                   zero     0x20007659      0x1  MX_Gtwy_Control.o [1]
  .bss                   zero     0x2000765a      0x1  MX_Gtwy_Control.o [1]
  .bss                   zero     0x2000765b      0x1  MX_Gtwy_Control.o [1]
  .bss                   zero     0x2000765c      0x1  MX_Gtwy_Control.o [1]
  .bss                   zero     0x2000765d      0x1  MX_Gtwy_Control.o [1]
  .bss                   zero     0x2000765e      0x1  MX_Gtwy_Control.o [1]
  .bss                   zero     0x2000765f      0x1  MX_Gtwy_Control.o [1]
  .bss                   zero     0x20007660      0x1  MX_Gtwy_Control.o [1]
  .bss                   zero     0x20007661      0x1  MX_Gtwy_Control.o [1]
  .bss                   zero     0x20007662      0x1  MX_Gtwy_Control.o [1]
  .bss                   zero     0x20007663      0x1  MX_Gtwy_Control.o [1]
  .bss                   zero     0x20007664      0x1  MX_Gtwy_Control.o [1]
  .bss                   zero     0x20007665      0x1  MX_Gtwy_Control.o [1]
  .bss                   zero     0x20007666      0x1  MX_Gtwy_Control.o [1]
  .bss                   zero     0x20007667      0x1  MX_Gtwy_Control.o [1]
  .bss                   zero     0x20007668      0x1  MX_Gtwy_Control.o [1]
  .bss                   zero     0x20007669      0x1  MX_Gtwy_Control.o [1]
  .bss                   zero     0x2000766a      0x1  MX_Gtwy_Control.o [1]
  .bss                   zero     0x2000766b      0x1  MX_Gtwy_Control.o [1]
  .bss                   zero     0x2000766c      0x1  MX_Gtwy_Control.o [1]
  .bss                   zero     0x2000766d      0x1  MX_Gtwy_Control.o [1]
  .bss                   zero     0x2000766e      0x1  MX_Gtwy_Control.o [1]
  .bss                   zero     0x2000766f      0x1  MX_Gtwy_Control.o [1]
  .bss                   zero     0x20007670      0x1  MX_Gtwy_Control.o [1]
  .bss                   zero     0x20007671      0x1  MX_Gtwy_Control.o [1]
  .bss                   zero     0x20007672      0x1  MX_Gtwy_Control.o [1]
  .bss                   zero     0x20007673      0x1  MX_Gtwy_Control.o [1]
  .bss                   zero     0x20007674      0x1  MX_Gtwy_Control.o [1]
  .bss                   zero     0x20007675      0x1  MX_Gtwy_Control.o [1]
  .bss                   zero     0x20007676      0x1  MX_Gtwy_Control.o [1]
  .bss                   zero     0x20007677      0x1  MX_Gtwy_Control.o [1]
  .bss                   zero     0x20007678      0x1  MX_Gtwy_Control.o [1]
  .bss                   zero     0x20007679      0x1  MX_Gtwy_Control.o [1]
  .bss                   zero     0x2000767a      0x1  MX_Gtwy_Control.o [1]
  .bss                   zero     0x2000767b      0x1  MX_Gtwy_Control.o [1]
  .bss                   zero     0x2000767c      0x1  MX_Gtwy_Control.o [1]
  .bss                   zero     0x2000767d      0x1  MX_Gtwy_Control.o [1]
  .bss                   zero     0x2000767e      0x1  MX_Gtwy_Control.o [1]
  .bss                   zero     0x2000767f      0x1  MX_Gtwy_Control.o [1]
  .bss                   zero     0x20007680      0x1  MX_Gtwy_Control.o [1]
  .bss                   zero     0x20007681      0x1  MX_Gtwy_Control.o [1]
  .bss                   zero     0x20007682      0x1  MX_Gtwy_Control.o [1]
  .bss                   zero     0x20007683      0x1  MX_Gtwy_Control.o [1]
  .bss                   zero     0x20007684      0x1  MX_Gtwy_Control.o [1]
  .bss                   zero     0x20007685      0x1  MX_Gtwy_Control.o [1]
  .bss                   zero     0x20007686      0x1  MX_Gtwy_Control.o [1]
  .bss                   zero     0x20007687      0x1  MX_Gtwy_Control.o [1]
  .bss                   zero     0x20007688      0x1  MX_Gtwy_Control.o [1]
  .bss                   zero     0x20007689      0x1  MX_Gtwy_Control.o [1]
  .bss                   zero     0x2000768a      0x1  MX_Gtwy_Control.o [1]
  .bss                   zero     0x2000768b      0x1  MX_Gtwy_Control.o [1]
  .bss                   zero     0x2000768c      0x1  MX_Gtwy_Control.o [1]
  .bss                   zero     0x2000768d      0x1  MX_Gtwy_Control.o [1]
  .bss                   zero     0x2000768e      0x1  MX_Gtwy_Control.o [1]
  .bss                   zero     0x2000768f      0x1  MX_Gtwy_Control.o [1]
  .bss                   zero     0x20007690      0x1  MX_Gtwy_Control.o [1]
  .bss                   zero     0x20007691      0x1  MX_Gtwy_Control.o [1]
  .bss                   zero     0x20007692      0x1  MX_Gtwy_Control.o [1]
  .bss                   zero     0x20007693      0x1  MX_Gtwy_Control.o [1]
  .bss                   zero     0x20007694      0x1  MX_Gtwy_Control.o [1]
  .bss                   zero     0x20007695      0x1  MX_Gtwy_Control.o [1]
  .bss                   zero     0x20007696      0x1  MX_Gtwy_Control.o [1]
  .bss                   zero     0x20007697      0x1  MX_Gtwy_Control.o [1]
  .bss                   zero     0x20007698      0x1  MX_Gtwy_Control.o [1]
  .bss                   zero     0x20007699      0x1  MX_Gtwy_Control.o [1]
  .bss                   zero     0x2000769a      0x1  MX_Gtwy_Control.o [1]
  .bss                   zero     0x2000769b      0x1  MX_Gtwy_Control.o [1]
  .bss                   zero     0x2000769c      0x1  MX_Gtwy_Control.o [1]
  .bss                   zero     0x2000769d      0x1  MX_Gtwy_Control.o [1]
  .bss                   zero     0x2000769e      0x1  MX_Gtwy_Control.o [1]
  .bss                   zero     0x2000769f      0x1  MX_Gtwy_Control.o [1]
  .bss                   zero     0x200076a0      0x1  MX_Gtwy_Control.o [1]
  .bss                   zero     0x200076a1      0x1  MX_Gtwy_Control.o [1]
  .bss                   zero     0x200076a2      0x1  MX_Gtwy_Control.o [1]
  .bss                   zero     0x200076a3      0x1  MX_Gtwy_Control.o [1]
  .bss                   zero     0x200076a4      0x1  MX_Gtwy_Control.o [1]
  .bss                   zero     0x200076a5      0x1  MX_Gtwy_Control.o [1]
  .bss                   zero     0x200076a6      0x1  MX_Gtwy_Control.o [1]
  .bss                   zero     0x200076a7      0x1  MX_Gtwy_Control.o [1]
  .bss                   zero     0x200076a8      0x1  MX_Gtwy_Control.o [1]
  .bss                   zero     0x200076a9      0x1  MX_Gtwy_Control.o [1]
  .bss                   zero     0x200076aa      0x1  MX_Gtwy_Control.o [1]
  .bss                   zero     0x200076ab      0x1  MX_Gtwy_Control.o [1]
  .bss                   zero     0x200076ac      0x1  MX_Gtwy_Control.o [1]
  .bss                   zero     0x200076ad      0x1  MX_Gtwy_Control.o [1]
  .bss                   zero     0x200076ae      0x1  MX_Gtwy_Control.o [1]
  .bss                   zero     0x200076af      0x1  MX_Gtwy_Control.o [1]
  .bss                   zero     0x200076b0      0x1  MX_Gtwy_Control.o [1]
  .bss                   zero     0x200076b1      0x1  MX_Gtwy_Control.o [1]
  .bss                   zero     0x200076b2      0x1  MX_Gtwy_Control.o [1]
  .bss                   zero     0x200076b3      0x1  MX_Gtwy_Control.o [1]
  .bss                   zero     0x200076b4      0x1  MX_Gtwy_Control.o [1]
  .bss                   zero     0x200076b5      0x1  MX_Gtwy_Control.o [1]
  .bss                   zero     0x200076b6      0x1  MX_Gtwy_Control.o [1]
  .bss                   zero     0x200076b7      0x1  MX_Gtwy_Control.o [1]
  .bss                   zero     0x200076b8      0x1  MX_Gtwy_Control.o [1]
  .bss                   zero     0x200076b9      0x1  MX_Gtwy_Control.o [1]
  .bss                   zero     0x200076ba      0x1  MX_Gtwy_Control.o [1]
  .bss                   zero     0x200076bb      0x1  MX_Gtwy_Control.o [1]
  .bss                   zero     0x200076bc      0x1  MX_Gtwy_Control.o [1]
  .bss                   zero     0x200076bd      0x1  MX_Gtwy_Control.o [1]
  .bss                   zero     0x200076be      0x1  MX_Gtwy_Control.o [1]
  .bss                   zero     0x200076bf      0x1  MX_Gtwy_Control.o [1]
  .bss                   zero     0x200076c0      0x1  MX_Gtwy_Control.o [1]
  .bss                   zero     0x200076c1      0x1  MX_Gtwy_Control.o [1]
  .bss                   zero     0x200076c2      0x1  MX_Gtwy_Control.o [1]
  .bss                   zero     0x200076c3      0x1  MX_Gtwy_Control.o [1]
  .bss                   zero     0x200076c4      0x1  MX_Gtwy_Control.o [1]
  .bss                   zero     0x200076c5      0x1  MX_Gtwy_Control.o [1]
  .bss                   zero     0x200076c6      0x1  MX_Gtwy_Control.o [1]
  .bss                   zero     0x200076c7      0x1  MX_Gtwy_Control.o [1]
  .bss                   zero     0x200076c8      0x1  MX_Gtwy_Control.o [1]
  .bss                   zero     0x200076c9      0x1  MX_Gtwy_Control.o [1]
  .bss                   zero     0x200076ca      0x1  MX_Gtwy_Control.o [1]
  .bss                   zero     0x200076cb      0x1  MX_Gtwy_Control.o [1]
  .bss                   zero     0x200076cc      0x1  MX_Gtwy_Control.o [1]
  .bss                   zero     0x200076cd      0x1  MX_Gtwy_Control.o [1]
  .bss                   zero     0x200076ce      0x1  MX_Gtwy_Control.o [1]
  .bss                   zero     0x200076cf      0x1  MX_Gtwy_Control.o [1]
  .bss                   zero     0x200076d0      0x1  MX_Gtwy_Control.o [1]
  .bss                   zero     0x200076d1      0x1  MX_Gtwy_Control.o [1]
  .bss                   zero     0x200076d2      0x1  MX_Gtwy_Control.o [1]
  .bss                   zero     0x200076d3      0x1  MX_Gtwy_Control.o [1]
  .bss                   zero     0x200076d4      0x1  MX_Gtwy_Control.o [1]
  .bss                   zero     0x200076d5      0x1  MX_Gtwy_Control.o [1]
  .bss                   zero     0x200076d6      0x1  MX_Gtwy_Control.o [1]
  .bss                   zero     0x200076d7      0x1  MX_Gtwy_Control.o [1]
  .bss                   zero     0x200076d8      0x1  MX_Gtwy_Control.o [1]
  .bss                   zero     0x200076d9      0x1  MX_Gtwy_Control.o [1]
  .bss                   zero     0x200076da      0x1  MX_Gtwy_Control.o [1]
  .bss                   zero     0x200076db      0x1  MX_Gtwy_Control.o [1]
  .bss                   zero     0x200076dc      0x1  MX_Gtwy_Control.o [1]
  .bss                   zero     0x200076dd      0x1  MX_Gtwy_Control.o [1]
  .bss                   zero     0x200076de      0x1  MX_Gtwy_Control.o [1]
  .bss                   zero     0x200076df      0x1  MX_Gtwy_Control.o [1]
  .bss                   zero     0x200076e0      0x1  MX_Gtwy_Control.o [1]
  .bss                   zero     0x200076e1      0x1  MX_Gtwy_Control.o [1]
  .bss                   zero     0x200076e2      0x1  MX_Gtwy_Control.o [1]
  .bss                   zero     0x200076e3      0x1  MX_Gtwy_Control.o [1]
  .bss                   zero     0x200076e4      0x1  MX_Gtwy_Control.o [1]
  .bss                   zero     0x200076e5      0x1  MX_Gtwy_Control.o [1]
  .bss                   zero     0x200076e6      0x1  MX_Gtwy_Control.o [1]
  .bss                   zero     0x200076e7      0x1  MX_Gtwy_Control.o [1]
  .bss                   zero     0x200076e8      0x1  MX_Gtwy_Control.o [1]
  .bss                   zero     0x200076e9      0x1  MX_Gtwy_Control.o [1]
  .bss                   zero     0x200076ea      0x1  MX_Gtwy_Control.o [1]
  .bss                   zero     0x200076eb      0x1  MX_Gtwy_Control.o [1]
  .bss                   zero     0x200076ec      0x1  MX_Gtwy_Control.o [1]
  .bss                   zero     0x200076ed      0x1  MX_Gtwy_Control.o [1]
  .bss                   zero     0x200076ee      0x1  MX_Gtwy_Control.o [1]
  .bss                   zero     0x200076ef      0x1  MX_Gtwy_Control.o [1]
  .bss                   zero     0x200076f0      0x1  MX_Gtwy_Control.o [1]
  .bss                   zero     0x200076f1      0x1  MX_Gtwy_Control.o [1]
  .bss                   zero     0x200076f2      0x1  MX_Gtwy_Control.o [1]
  .bss                   zero     0x200076f3      0x1  MX_Gtwy_Control.o [1]
  .bss                   zero     0x200076f4      0x1  MX_Gtwy_Control.o [1]
  .bss                   zero     0x200076f5      0x1  MX_Gtwy_Control.o [1]
  .bss                   zero     0x200076f6      0x1  MX_Gtwy_Control.o [1]
  .bss                   zero     0x200076f7      0x1  MX_Gtwy_Control.o [1]
  .bss                   zero     0x200076f8      0x1  stf4_bsp_ecuid.o [1]
  .bss                   zero     0x200076f9      0x1  stf4_bsp_mcu.o [1]
  .bss                   zero     0x200076fa      0x1  stf4_bsp_mcu.o [1]
  .bss                   zero     0x200076fb      0x1  stf4_bsp_rtc.o [1]
                                - 0x200076fc   0x7110


*******************************************************************************
*** INIT TABLE
***

          Address     Size
          -------     ----
Zero (__iar_zero_init3)
    1 destination range, total size 0x7110:
          0x200005ec  0x7110

Copy/lz77 (__iar_lz77_init_single3)
    1 source range, total size 0xf3 (57% of destination):
          0x0809124c    0xf3
    1 destination range, total size 0x1aa:
          0x20000440   0x1aa

Extra (__iar_cstart_call_ctors)



*******************************************************************************
*** MODULE SUMMARY
***

    Module                  ro code  ro data  rw data
    ------                  -------  -------  -------
C:\Projects\SVNrepo\dibh-prod-esEMex\iar\mex_gateway_Debug\Obj: [1]
    J1939_TP_rx.o             1 374
    J1939_TP_tx.o             1 272
    MX_Gtwy_Control.o        12 820        4    2 055
    MX_Gtwy_Control_data.o               984
    SendMsgNow.o                502                 2
    ap.o                        288       36      500
    ap_bservice.o             1 400       72      135
    ap_bservice_CAN04.o       7 420       37      348
    ap_bservice_CANOpen.o     2 212               216
    ap_bservice_CANStd.o      1 160               524
    ap_bservice_dv.o            532                 4
    ap_bservice_prog.o          296                 3
    ap_bsp.o                    664      269      264
    ap_can.o                 13 148      452    2 127
    ap_cdata.o                1 192               276
    ap_deluxeG5.o            15 128             1 143
    ap_deluxeG55.o            3 582       19      338
    ap_dv.o                   2 912    2 386      219
    ap_eeprom.o               9 048       48    2 823
    ap_eeprom_bsp.o                      256
    ap_engine.o               3 692      512    1 007
    ap_gateway.o                662               600
    ap_hwt.o                  1 346       92      106
    ap_keylessentry.o         2 592        1      162
    ap_keylessstart.o         1 204                89
    ap_main.o                 6 060       32       26
    ap_schd.o                   516
    ap_subs.o                 3 408                22
    ap_tasks.o                            48
    ap_version.o                          58
    cancipher.o                 936       20       16
    global.o                                      334
    hw_adc.o                    492
    hw_can.o                    552        2      656
    hw_can_rx.o                 242
    hw_can_tx.o                 414
    hw_can_txq.o                380                10
    hw_clock.o                   30
    hw_dio.o                  1 624                12
    hw_fin.o                     50                 4
    hw_gauge.o                   14
    hw_io.o                     444       72        2
    hw_mcu.o                    222        3       10
    hw_nvm.o                  1 088       80        5
    hw_pwm.o                    140       12
    iar_stf4_cstartup.o          86       68
    main.o                       24
    mod_Inputs.o             63 324
    mod_Library.o            10 472
    mod_Outputs.o            27 968
    mod_Panel.o              19 464
    mod_System.o             58 748
    nvm_ecuid.o                  40                 8
    passwordverifier.o           84
    stf4_bsp_adc.o            2 364      644      936
    stf4_bsp_can.o            1 210        8    3 312
    stf4_bsp_clock.o            388        5       24
    stf4_bsp_com.o              784      160    1 376
    stf4_bsp_din.o              212      300       20
    stf4_bsp_dout.o             680      544       16
    stf4_bsp_ecuid.o             84        4       13
    stf4_bsp_fin.o            1 304      160      256
    stf4_bsp_mcu.o            1 084    1 468       42
    stf4_bsp_nvm.o            2 060      330    8 640
    stf4_bsp_pwm.o            1 046      234      476
    stf4_bsp_rom.o              200      288
    stf4_bsp_rtc.o              522                 9
    stf4_bsp_sdata.o            424       84        8
    stf4_fifo.o                 266
    stf4_iic.o                1 820      136       24
    stf4_timer.o                346       24
    stf4_vectors.o              172                 8
    stm32f4xx_adc.o           1 920       16
    stm32f4xx_can.o           2 072       16
    stm32f4xx_dma.o           1 580       16
    stm32f4xx_gpio.o          1 584       20
    stm32f4xx_i2c.o           1 268       16
    stm32f4xx_iwdg.o             16
    stm32f4xx_pwr.o              96       16
    stm32f4xx_rcc.o           1 976       25       16
    stm32f4xx_rtc.o           1 308       16
    stm32f4xx_tim.o           4 454       16
    stm32f4xx_usart.o         1 824       20
    system_stm32f4xx.o          428
    -------------------------------------------------
    Total:                  314 760   10 129   29 222

command line: [2]
    -------------------------------------------------
    Total:

dl7M_tln.a: [3]
    abort.o                       6
    cppinit.o                    24
    exit.o                        4
    low_level_init.o              4
    rand.o                      176        5      140
    snprintf.o                   68
    vsnprint.o                   60
    xfail_s.o                    64                 4
    xprintffull_nomb.o        3 618
    xsnprout.o                   26
    -------------------------------------------------
    Total:                    4 050        5      144

dlpp7M_tl_nc.a: [4]
    -------------------------------------------------
    Total:

m7M_tls.a: [5]
    DblAdd.o                    360
    DblCmpGe.o                   46
    DblCmpLe.o                   46
    DblDiv.o                    582
    DblMul.o                    418
    DblSub.o                    226
    DblToS32.o                   58
    DblToU32.o                   40
    S32ToDbl.o                   34
    U32ToDbl.o                   26
    fpinit_M.o                   34
    frexp.o                     112
    ldexp.o                     314
    -------------------------------------------------
    Total:                    2 296

rt7M_tl.a: [6]
    ABImemcpy_unaligned.o       118
    ABImemset.o                 102
    I64DivMod.o                 558
    I64DivZer.o                   2
    I64Shl.o                     34
    cexit.o                      10
    cmain.o                      30
    cmain_call_ctors.o           32
    cstartup_M.o                 12
    data_init.o                  40
    lz77_init_single.o          122
    memchr.o                     88
    strchr.o                     22
    strlen.o                     54
    zero_init3.o                 64
    -------------------------------------------------
    Total:                    1 288

shb_l.a: [7]
    exit.o                       20
    unwind_debug.o                         1
    -------------------------------------------------
    Total:                       20        1

    Gaps                         24        2        4
    Linker created                        36    5 440
-----------------------------------------------------
    Grand Total:            322 438   10 173   34 810


*******************************************************************************
*** ENTRY LIST
***

Entry                      Address    Size  Type      Object
-----                      -------    ----  ----      ------
.iar.init_table$$Base   0x08090ec0           --   Gb  - Linker created -
.iar.init_table$$Limit  0x08090ee4           --   Gb  - Linker created -
?main                   0x0808365d          Code  Gb  cmain.o [6]
AAI_CAN0_TX             0x20006a08    0x28  Data  Gb  ap_can.o [1]
AAI_CAN4_TX             0x20006da0    0x28  Data  Gb  ap_engine.o [1]
ACDAuxOverrideDebounce  0x200075b1     0x1  Data  Gb  ap_can.o [1]
ACDAuxOverridePressed   0x200075b2     0x1  Data  Gb  ap_can.o [1]
ADC_Cmd                 0x08080dd5    0x62  Code  Gb  stm32f4xx_adc.o [1]
ADC_CommonInit          0x08080c61   0x162  Code  Gb  stm32f4xx_adc.o [1]
ADC_CommonStructInit    0x08080dc3    0x12  Code  Gb  stm32f4xx_adc.o [1]
ADC_DMACmd              0x080810dd    0x62  Code  Gb  stm32f4xx_adc.o [1]
ADC_DMARequestAfterLastTransferCmd
                        0x0808113f    0x62  Code  Gb  stm32f4xx_adc.o [1]
ADC_DeInit              0x08080a85    0x18  Code  Gb  stm32f4xx_adc.o [1]
ADC_EOCOnEachRegularChannelCmd
                        0x0808106f    0x5c  Code  Gb  stm32f4xx_adc.o [1]
ADC_Init                0x08080a9d   0x1a6  Code  Gb  stm32f4xx_adc.o [1]
ADC_MultiModeDMARequestAfterLastTransferCmd
                        0x080811a1    0x44  Code  Gb  stm32f4xx_adc.o [1]
ADC_RegularChannelConfig
                        0x08080e37   0x238  Code  Gb  stm32f4xx_adc.o [1]
ADC_StructInit          0x08080c43    0x1e  Code  Gb  stm32f4xx_adc.o [1]
AMB_RX                  0x20006558    0x30  Data  Gb  ap_engine.o [1]
AMB_rx_callback(hw_can_msg_t *)
                        0x0808be45    0x56  Code  Gb  ap_engine.o [1]
APBAHBPrescTable        0x200005c4    0x10  Data  Lc  stm32f4xx_rcc.o [1]
AcknowledgeData         0x20007204     0x8  Data  Gb  ap_can.o [1]
ActiveCodes             0x20006e98    0x20  Data  Gb  ap_dv.o [1]
ActiveCodes_RX          0x200065b8    0x30  Data  Gb  ap_engine.o [1]
ActiveCodes_read_uint16(unsigned short)
                        0x08089f95    0x20  Code  Gb  ap_dv.o [1]
ActiveCodes_read_uint32(unsigned short)
                        0x08089fb5    0x1e  Code  Gb  ap_dv.o [1]
ActiveCodes_read_uint8(unsigned short)
                        0x08089f75    0x20  Code  Gb  ap_dv.o [1]
ActiveCodes_rx_callback(hw_can_msg_t *)
                        0x0808bee1   0x118  Code  Gb  ap_engine.o [1]
AuxStatusCheck()::prev_aux_Flow
                        0x200075d4     0x1  Data  Lc  ap_deluxeG55.o [1]
AuxStatusCheck()::prev_cmd_Diverter
                        0x200075d6     0x1  Data  Lc  ap_deluxeG55.o [1]
AuxStatusCheck()::prev_state_AuxEnable
                        0x200075d1     0x1  Data  Lc  ap_deluxeG55.o [1]
AuxStatusCheck()::prev_state_AuxRelease
                        0x200075d5     0x1  Data  Lc  ap_deluxeG55.o [1]
AuxStatusCheck()::prev_state_Detent
                        0x200075d2     0x1  Data  Lc  ap_deluxeG55.o [1]
AuxStatusCheck()::prev_state_DetentEnable
                        0x200075d3     0x1  Data  Lc  ap_deluxeG55.o [1]
BINARYSEARCH_S16(unsigned int *, unsigned int *, short, short const *, unsigned int)
                        0x080526ff    0x58  Code  Gb  MX_Gtwy_Control.o [1]
BINARYSEARCH_U16(unsigned int *, unsigned int *, unsigned short, unsigned short const *, unsigned int)
                        0x08052299    0x56  Code  Gb  MX_Gtwy_Control.o [1]
BINARYSEARCH_U16_Near_iL(unsigned int *, unsigned short, unsigned short const *, unsigned int)
                        0x08052231    0x68  Code  Gb  MX_Gtwy_Control.o [1]
BINARYSEARCH_U16_iL(unsigned int *, unsigned short, unsigned short const *, unsigned int)
                        0x080526b5    0x4a  Code  Gb  MX_Gtwy_Control.o [1]
BJM2LeftRX              0x20006228    0x30  Data  Gb  ap_can.o [1]
BJM2Left_rx_callback(hw_can_msg_t *)
                        0x08059fbb    0x28  Code  Gb  ap_can.o [1]
BJM2RightRX             0x200061f8    0x30  Data  Gb  ap_can.o [1]
BJM2Right_rx_callback(hw_can_msg_t *)
                        0x08059f49    0x28  Code  Gb  ap_can.o [1]
CAN01_SecondaryRX       0x20006108    0x30  Data  Gb  ap_can.o [1]
CAN01_ThrottleRX        0x200060d8    0x30  Data  Gb  ap_can.o [1]
CAN01sTX                0x20006a58    0x28  Data  Gb  ap_can.o [1]
CAN02sTX                0x20006a80    0x28  Data  Gb  ap_can.o [1]
CAN03sTX                0x20006aa8    0x28  Data  Gb  ap_can.o [1]
CAN04_rx_callback(hw_can_msg_t *)
                        0x080775b9    0x36  Code  Gb  ap_bservice_CAN04.o [1]
CAN04sRX                0x20005da8    0x30  Data  Gb  ap_bservice_CAN04.o [1]
CAN05sTX                0x20006ad0    0x28  Data  Gb  ap_can.o [1]
CAN06sTX                0x20006af8    0x28  Data  Gb  ap_can.o [1]
CAN20sTX                0x20006b70    0x28  Data  Gb  ap_can.o [1]
CAN21extTX              0x20006b48    0x28  Data  Gb  ap_can.o [1]
CAN21sTX                0x20006b20    0x28  Data  Gb  ap_can.o [1]
CANOpenChangeStatusInverter()
                        0x0808aa5b   0x13e  Code  Gb  ap_bservice_CANOpen.o [1]
CANOpenGUARD            0x20005e38    0x30  Data  Gb  ap_bservice_CANOpen.o [1]
CANOpenInitialize()     0x0808aa01    0x1a  Code  Gb  ap_bservice_CANOpen.o [1]
CANOpenMsgTPDO1::operator !=(const CANOpenMsgTPDO1&) const
                        0x0808b1a7    0x5a  Code  Gb  ap_bservice_CANOpen.o [1]
CANOpenMsgTPDO1::operator =(const CANOpenMsgTPDO1&)
                        0x0808b189    0x1e  Code  Gb  ap_bservice_CANOpen.o [1]
CANOpenMsgTPDO2::operator !=(const CANOpenMsgTPDO2&) const
                        0x0808b20b    0x1e  Code  Gb  ap_bservice_CANOpen.o [1]
CANOpenMsgTPDO2::operator =(const CANOpenMsgTPDO2&)
                        0x0808b201     0xa  Code  Gb  ap_bservice_CANOpen.o [1]
CANOpenNTMInitialize(unsigned char)
                        0x0808ac29     0xe  Code  Gb  ap_bservice_CANOpen.o [1]
CANOpenPDOInitialize(unsigned char)
                        0x0808ac13    0x16  Code  Gb  ap_bservice_CANOpen.o [1]
CANOpenRPDO1            0x20005dd8    0x30  Data  Gb  ap_bservice_CANOpen.o [1]
CANOpenRPDO2            0x20005e08    0x30  Data  Gb  ap_bservice_CANOpen.o [1]
CANOpenUpdate()         0x0808aa1b    0x40  Code  Gb  ap_bservice_CANOpen.o [1]
CANStdInitialize()      0x0808b2e9    0x28  Code  Gb  ap_bservice_CANStd.o [1]
CANStdUpdate()          0x0808b2a5    0x44  Code  Gb  ap_bservice_CANStd.o [1]
CAN_ACD_rx_callback(hw_can_msg_t *)
                        0x08058037    0xd8  Code  Gb  ap_can.o [1]
CAN_ACDsRX              0x20006048    0x30  Data  Gb  ap_can.o [1]
CAN_DeInit              0x0807e7c5    0x52  Code  Gb  stm32f4xx_can.o [1]
CAN_FilterInit          0x0807ea45   0x184  Code  Gb  stm32f4xx_can.o [1]
CAN_ITConfig            0x0807ef0d    0xaa  Code  Gb  stm32f4xx_can.o [1]
CAN_Init                0x0807e817   0x22e  Code  Gb  stm32f4xx_can.o [1]
CAN_KeypadsRX           0x20006708    0x30  Data  Gb  ap_keylessstart.o [1]
CAN_KeypadsTX           0x20006df0    0x28  Data  Gb  ap_keylessstart.o [1]
CAN_Receive             0x0807edbd   0x144  Code  Gb  stm32f4xx_can.o [1]
CAN_ST_rx_callback(hw_can_msg_t *)
                        0x08057ddf    0xc8  Code  Gb  ap_can.o [1]
CAN_STsRX               0x20006018    0x30  Data  Gb  ap_can.o [1]
CAN_StructInit          0x0807ebc9    0x2e  Code  Gb  stm32f4xx_can.o [1]
CAN_Transmit            0x0807ebf7   0x1c6  Code  Gb  stm32f4xx_can.o [1]
CCVS_CAN4TX             0x20006d28    0x28  Data  Gb  ap_engine.o [1]
CDATA_MAP               0x200073a8     0x4  Data  Gb  ap_cdata.o [1]
CONSTANT_DATA           0x2000729c     0x4  Data  Gb  ap_cdata.o [1]
CSTACK$$Base            0x1000f000           --   Gb  - Linker created -
CSTACK$$Length          0x00001000           --   Gb  - Linker created -
CSTACK$$Limit           0x10010000           --   Gb  - Linker created -
CanCipher::CanCipher()  0x0808e21b    0x12  Code  Gb  cancipher.o [1]
CanCipher::decipher(hw_can_msg_t *)
                        0x0808e36f    0xc4  Code  Gb  cancipher.o [1]
CanCipher::decipherXtea(unsigned int, unsigned int *, unsigned int const *)
                        0x0808e533    0x6a  Code  Gb  cancipher.o [1]
CanCipher::encipher(hw_can_msg_t *)
                        0x0808e2ab    0xc4  Code  Gb  cancipher.o [1]
CanCipher::encipherXtea(unsigned int, unsigned int *, unsigned int const *)
                        0x0808e4cb    0x68  Code  Gb  cancipher.o [1]
CanCipher::hash(unsigned char const *, unsigned char)
                        0x0808e433    0x98  Code  Gb  cancipher.o [1]
CanCipher::inst         0x200070a0    0x10  Data  Gb  cancipher.o [1]
CanCipher::saltThatKey(unsigned int *, hw_can_msg_t const *)
                        0x0808e275    0x36  Code  Gb  cancipher.o [1]
CanCipher::setSerialNumber(unsigned char const *, unsigned char)
                        0x0808e22d    0x48  Code  Gb  cancipher.o [1]
CelsiusToFahrenheit     0x0808ff28   0x200  Data  Lc  ap_engine.o [1]
CommandedAddress_TP_tx  0x20005a0c    0x64  Data  Gb  ap_dv.o [1]
ControlStruct::operator !=(const ControlStruct&) const
                        0x0808b703    0x2a  Code  Gb  ap_bservice_CANStd.o [1]
ControlStruct::operator =(const ControlStruct&)
                        0x0808b6f5     0xe  Code  Gb  ap_bservice_CANStd.o [1]
DD_CAN0TX               0x200069b8    0x28  Data  Gb  ap_can.o [1]
DD_CAN4TX               0x20006d00    0x28  Data  Gb  ap_engine.o [1]
DMA_ClearITPendingBit   0x0808097d    0xb4  Code  Gb  stm32f4xx_dma.o [1]
DMA_Cmd                 0x08080749    0xc4  Code  Gb  stm32f4xx_dma.o [1]
DMA_ITConfig            0x08080855   0x10a  Code  Gb  stm32f4xx_dma.o [1]
DMA_Init                0x08080459   0x2b2  Code  Gb  stm32f4xx_dma.o [1]
DMA_StructInit          0x0808070b    0x3e  Code  Gb  stm32f4xx_dma.o [1]
DV                      0x20006e58    0x20  Data  Gb  ap_dv.o [1]
DV2                     0x20006e78    0x20  Data  Gb  ap_dv.o [1]
DV2_read_uint16(unsigned short)
                        0x08089ff3    0x20  Code  Gb  ap_dv.o [1]
DV2_read_uint32(unsigned short)
                        0x0808a013    0x1e  Code  Gb  ap_dv.o [1]
DV2_read_uint8(unsigned short)
                        0x08089fd3    0x20  Code  Gb  ap_dv.o [1]
DVTest()                0x0808a41d   0x50c  Code  Gb  ap_dv.o [1]
DVTest(){1}{25}::pnlCounter
                        0x2000747a     0x2  Data  Lc  ap_dv.o [1]
DV_read_uint16(unsigned short)
                        0x08089ed3    0x22  Code  Gb  ap_dv.o [1]
DV_read_uint32(unsigned short)
                        0x08089ef5    0x20  Code  Gb  ap_dv.o [1]
DV_read_uint8(unsigned short)
                        0x08089eb1    0x22  Code  Gb  ap_dv.o [1]
DV_write_uint16(unsigned short, unsigned short)
                        0x08089f35    0x20  Code  Gb  ap_dv.o [1]
DV_write_uint32(unsigned short, unsigned int)
                        0x08089f55    0x20  Code  Gb  ap_dv.o [1]
DV_write_uint8(unsigned short, unsigned char)
                        0x08089f15    0x20  Code  Gb  ap_dv.o [1]
DeluxeAuthenticationG55_rx_callback(hw_can_msg_t *)
                        0x0808cc37    0xae  Code  Gb  ap_deluxeG55.o [1]
DeluxeKeypad_rx_callback(hw_can_msg_t *)
                        0x08087cdd    0x42  Code  Gb  ap_deluxeG5.o [1]
DeluxePasswordsRX       0x200066d8    0x30  Data  Gb  ap_keylessentry.o [1]
DeluxePasswords_rx_callback(hw_can_msg_t *)
                        0x0808d91f   0x178  Code  Gb  ap_keylessentry.o [1]
DeluxePasswords_rx_callback(hw_can_msg_t *)::passwordFlags
                        0x200073c0     0x4  Data  Lc  ap_keylessentry.o [1]
DeluxeProg_rx_callback(hw_can_msg_t *)
                        0x08087d61     0x8  Code  Gb  ap_deluxeG5.o [1]
DeluxeStatusG55_rx_callback(hw_can_msg_t *)
                        0x0808cad9    0x7a  Code  Gb  ap_deluxeG55.o [1]
DeluxeStatusG55_rx_callback(hw_can_msg_t *)::previousUser
                        0x200005e1     0x1  Data  Lc  ap_deluxeG55.o [1]
DeluxeStatus_rx_callback(hw_can_msg_t *)
                        0x08085019   0x1ea  Code  Gb  ap_deluxeG5.o [1]
Deluxe_Data_Update()    0x080870a1   0x122  Code  Gb  ap_deluxeG5.o [1]
Deluxe_TP_msg           0x20007190     0xc  Data  Gb  ap_deluxeG5.o [1]
Deluxe_TP_rx            0x20004c34   0x174  Data  Gb  ap_deluxeG5.o [1]
Deluxe_TP_tx            0x200059a8    0x64  Data  Gb  ap_deluxeG5.o [1]
Deluxe_TP_update()      0x08087cad    0x28  Code  Gb  ap_deluxeG5.o [1]
DigDepthStatusRX        0x20006198    0x30  Data  Gb  ap_can.o [1]
DigDepthStatus_rx_callback(hw_can_msg_t *)
                        0x0805a02d    0x22  Code  Gb  ap_can.o [1]
ECU_TP_rx               0x20004da8   0x174  Data  Gb  ap_engine.o [1]
EEC1_CAN0TX             0x20006788    0x28  Data  Gb  ap_can.o [1]
EEC1_RX                 0x200064f8    0x30  Data  Gb  ap_engine.o [1]
EEC2_CAN0TX             0x200069e0    0x28  Data  Gb  ap_can.o [1]
EEC2_CAN4TX             0x20006d50    0x28  Data  Gb  ap_engine.o [1]
EEPROM_SECTIONS         0x08090b28    0x50  Data  Lc  hw_nvm.o [1]
EE_HOUR_METER_BLOCK_BEGIN
                        0x08091230     0x4  Data  Lc  ap_eeprom.o [1]
EE_HOUR_METER_BLOCK_END
                        0x08091234     0x4  Data  Lc  ap_eeprom.o [1]
EFL_P1_CAN0TX           0x200068f0    0x28  Data  Gb  ap_can.o [1]
EFL_P1_RX               0x20006588    0x30  Data  Gb  ap_engine.o [1]
EFL_P1_rx_callback(hw_can_msg_t *)
                        0x0808bb7f    0x70  Code  Gb  ap_engine.o [1]
ET1_CAN0TX              0x200068c8    0x28  Data  Gb  ap_can.o [1]
ET1_RX                  0x20006528    0x30  Data  Gb  ap_engine.o [1]
ET1_rx_callback(hw_can_msg_t *)
                        0x0808ba6b    0xce  Code  Gb  ap_engine.o [1]
EngineFailureQueue      0x20005bf0    0x50  Data  Gb  ap_bservice_CAN04.o [1]
Engine_Start()          0x08048215   0x210  Code  Gb  mod_Inputs.o [1]
Engine_Start_Init()     0x080481d7    0x34  Code  Gb  mod_Inputs.o [1]
ErrorQueueDisplayList(unsigned char, unsigned char, unsigned char, unsigned short, unsigned char)
                        0x08078a49   0x49a  Code  Gb  ap_bservice_CAN04.o [1]
ErrorQueueTimerUpdate()
                        0x08078ef1   0x38a  Code  Gb  ap_bservice_CAN04.o [1]
FahrenheitToCelsius     0x08090318   0x1c4  Data  Lc  ap_can.o [1]
FailureQueue            0x200055bc    0xa0  Data  Gb  ap_bservice_CAN04.o [1]
GPIO_Init               0x0807acd9   0x1a4  Code  Gb  stm32f4xx_gpio.o [1]
GPIO_PinAFConfig        0x0807b065   0x272  Code  Gb  stm32f4xx_gpio.o [1]
GPIO_ResetBits          0x0807ae95    0x68  Code  Gb  stm32f4xx_gpio.o [1]
GPIO_StructInit         0x0807ae7d    0x18  Code  Gb  stm32f4xx_gpio.o [1]
GPIO_WriteBit           0x0807af2d   0x132  Code  Gb  stm32f4xx_gpio.o [1]
GTW_PCODE_ECU_ASCIIPCODE
                        0x20007374     0x4  Data  Gb  ap_cdata.o [1]
GTW_PCODE_ECU_SPNLOOKUP
                        0x20007378     0x4  Data  Gb  ap_cdata.o [1]
GUARD_rx_callback(hw_can_msg_t *)
                        0x0808ad4d    0x36  Code  Gb  ap_bservice_CANOpen.o [1]
GetUserIdle(unsigned char)
                        0x08055627    0x2c  Code  Gb  ap_eeprom.o [1]
GetUserJob(unsigned char)
                        0x080555c9    0x2c  Code  Gb  ap_eeprom.o [1]
HOURS_RX                0x20006648    0x30  Data  Gb  ap_engine.o [1]
HOURS_rx_callback(hw_can_msg_t *)
                        0x0808bd3f    0x62  Code  Gb  ap_engine.o [1]
HWJ1939AcknowledgeMsgIntTX
                        0x20006940    0x28  Data  Gb  ap_can.o [1]
HWJ1939BICSControlTX    0x20006918    0x28  Data  Gb  ap_can.o [1]
HWJ1939ConfigMsgIntTX   0x20006968    0x28  Data  Gb  ap_can.o [1]
HWJ1939EngineHoursIntTX
                        0x20006760    0x28  Data  Gb  ap_can.o [1]
HWJ1939PanelExternalIORX
                        0x200060a8    0x30  Data  Gb  ap_can.o [1]
HWJ1939RequestMsgIntRX  0x20006138    0x30  Data  Gb  ap_can.o [1]
HWJ1939RequestMsg_rx_callback(hw_can_msg_t *)
                        0x0805a759   0x25e  Code  Gb  ap_can.o [1]
HWT_ADC_BASE            0x0807e42e     0x2  Data  Lc  ap_hwt.o [1]
HWT_ADC_QTY             0x0807dca2     0x2  Data  Lc  ap_hwt.o [1]
HWT_DIN_BASE            0x0807c3f6     0x2  Data  Lc  ap_hwt.o [1]
HWT_DIN_QTY             0x0807b35e     0x2  Data  Lc  ap_hwt.o [1]
HWT_DOUT_BASE           0x0808259a     0x2  Data  Lc  ap_hwt.o [1]
HWT_DOUT_QTY            0x08081432     0x2  Data  Lc  ap_hwt.o [1]
HWT_FCALL_BASE          0x0808367a     0x2  Data  Lc  ap_hwt.o [1]
HWT_FIN_BASE            0x0807f10e     0x2  Data  Lc  ap_hwt.o [1]
HWT_FIN_QTY             0x0807e7c2     0x2  Data  Lc  ap_hwt.o [1]
HWT_GAUGE_BASE          0x0808365a     0x2  Data  Lc  ap_hwt.o [1]
HWT_GAUGE_QTY           0x080835f2     0x2  Data  Lc  ap_hwt.o [1]
HWT_PWM_BASE            0x08083556     0x2  Data  Lc  ap_hwt.o [1]
HWT_PWM_QTY             0x08083472     0x2  Data  Lc  ap_hwt.o [1]
HoursUpdatesRX          0x20006168    0x30  Data  Gb  ap_can.o [1]
HoursUpdatesRX_rx_callback(hw_can_msg_t *)
                        0x0805869d    0x6e  Code  Gb  ap_can.o [1]
HydControlSettings_rx_callback(hw_can_msg_t *)
                        0x08059cbd    0x3e  Code  Gb  ap_can.o [1]
I2C_AcknowledgeConfig   0x0807f479    0x64  Code  Gb  stm32f4xx_i2c.o [1]
I2C_ClearFlag           0x0807f5af    0x44  Code  Gb  stm32f4xx_i2c.o [1]
I2C_DeInit              0x0807f111    0x80  Code  Gb  stm32f4xx_i2c.o [1]
I2C_GenerateSTART       0x0807f34f    0x64  Code  Gb  stm32f4xx_i2c.o [1]
I2C_GenerateSTOP        0x0807f3b3    0x64  Code  Gb  stm32f4xx_i2c.o [1]
I2C_GetLastEvent        0x0807f579    0x36  Code  Gb  stm32f4xx_i2c.o [1]
I2C_ITConfig            0x0807f4f9    0x7c  Code  Gb  stm32f4xx_i2c.o [1]
I2C_Init                0x0807f191   0x19e  Code  Gb  stm32f4xx_i2c.o [1]
I2C_Send7bitAddress     0x0807f417    0x62  Code  Gb  stm32f4xx_i2c.o [1]
I2C_StructInit          0x0807f32f    0x20  Code  Gb  stm32f4xx_i2c.o [1]
INTERPOLATE_EVEN_U16_U16_SAT(unsigned short *, unsigned short, unsigned short, unsigned short, unsigned short)
                        0x080523c9    0xcc  Code  Gb  MX_Gtwy_Control.o [1]
INTERPOLATE_U16_S16(unsigned short *, unsigned short, unsigned short, short, short, short)
                        0x08052757    0x96  Code  Gb  MX_Gtwy_Control.o [1]
INTERPOLATE_U16_U16(unsigned short *, unsigned short, unsigned short, unsigned short, unsigned short, unsigned short)
                        0x080522ef    0x8e  Code  Gb  MX_Gtwy_Control.o [1]
INTERPOLATE_U16_U16_SAT(unsigned short *, unsigned short, unsigned short, unsigned short, unsigned short, unsigned short)
                        0x080524ff   0x16a  Code  Gb  MX_Gtwy_Control.o [1]
IWDG_ReloadCounter      0x0807acc9     0xa  Code  Gb  stm32f4xx_iwdg.o [1]
InitDVTest()            0x0808a3df    0x3e  Code  Gb  ap_dv.o [1]
InitWatchdog            0x0807f65b    0x42  Code  Lc  system_stm32f4xx.o [1]
J1939_TP_rx::CM_rx_callback(hw_can_msg_t *)
                        0x0808806b   0x15c  Code  Gb  J1939_TP_rx.o [1]
J1939_TP_rx::DT_rx_callback(hw_can_msg_t *)
                        0x080881c7    0x9e  Code  Gb  J1939_TP_rx.o [1]
J1939_TP_rx::FreeBuffer(unsigned char)
                        0x08088265    0x52  Code  Gb  J1939_TP_rx.o [1]
J1939_TP_rx::HWC_CM_rx_callback(hw_can_msg_t *, void *)
                        0x08087efd    0x16  Code  Gb  J1939_TP_rx.o [1]
J1939_TP_rx::HWC_DT_rx_callback(hw_can_msg_t *, void *)
                        0x08087f13    0x16  Code  Gb  J1939_TP_rx.o [1]
J1939_TP_rx::MsgAvailiable() const
                        0x0808845b    0x10  Code  Gb  ap_engine.o [1]
J1939_TP_rx::initialize(unsigned char, unsigned char)
                        0x08087f29    0x1e  Code  Gb  J1939_TP_rx.o [1]
J1939_TP_rx::initialize_sa(unsigned char, unsigned char, unsigned char, unsigned char)
                        0x08087f47    0xe8  Code  Gb  J1939_TP_rx.o [1]
J1939_TP_rx::send_CM_CTS(unsigned char, unsigned char, unsigned char, unsigned int)
                        0x080882b7    0x8c  Code  Gb  J1939_TP_rx.o [1]
J1939_TP_rx::send_CM_ConnAbort(unsigned char, unsigned char, unsigned int)
                        0x080883d5    0x86  Code  Gb  J1939_TP_rx.o [1]
J1939_TP_rx::send_CM_EndOfMsgACK(unsigned char, unsigned short, unsigned char, unsigned int)
                        0x08088343    0x92  Code  Gb  J1939_TP_rx.o [1]
J1939_TP_rx::update()   0x08088041    0x2a  Code  Gb  J1939_TP_rx.o [1]
J1939_TP_tx::Busy() const
                        0x0807e78b     0x8  Code  Gb  J1939_TP_tx.o [1]
J1939_TP_tx::Idle() const
                        0x0807967d    0x18  Code  Gb  J1939_TP_tx.o [1]
J1939_TP_tx::SendMsg(J1939_msg_t *)
                        0x08079525   0x158  Code  Gb  J1939_TP_tx.o [1]
J1939_TP_tx::initialize(unsigned char)
                        0x080792dd    0x7a  Code  Gb  J1939_TP_tx.o [1]
J1939_TP_tx::update()   0x08079361   0x1c4  Code  Gb  J1939_TP_tx.o [1]
JobClock_rx_callback(hw_can_msg_t *)
                        0x080854a1   0x372  Code  Gb  ap_deluxeG5.o [1]
KSS_Display             0x20007661     0x1  Data  Gb  MX_Gtwy_Control.o [1]
KeylessEntryRX          0x200066a8    0x30  Data  Gb  ap_keylessentry.o [1]
KeylessEntryTX          0x20006dc8    0x28  Data  Gb  ap_keylessentry.o [1]
KeylessEntry_rx_callback(hw_can_msg_t *)
                        0x0808d7f1    0x30  Code  Gb  ap_keylessentry.o [1]
Keypad_rx_callback(hw_can_msg_t *)
                        0x0808d42f    0x30  Code  Gb  ap_keylessstart.o [1]
LCD                     0x200071fc     0x8  Data  Gb  ap_can.o [1]
LFC_RX                  0x20006618    0x30  Data  Gb  ap_engine.o [1]
LFC_rx_callback(hw_can_msg_t *)
                        0x0808bc9f    0x5a  Code  Gb  ap_engine.o [1]
LFE_CAN0_RX             0x200061c8    0x30  Data  Gb  ap_can.o [1]
LFE_CAN0_rx_callback(hw_can_msg_t *)
                        0x08059db5    0x16  Code  Gb  ap_can.o [1]
LFE_CAN4_RX             0x200065e8    0x30  Data  Gb  ap_engine.o [1]
LFE_CAN4_rx_callback(hw_can_msg_t *)
                        0x0808bc35    0x24  Code  Gb  ap_engine.o [1]
LoadInt                 0x0808274f    0x7a  Code  Lc  xprintffull_nomb.o [3]
LookUpEven_U16_U16_SAT(unsigned short *, unsigned short const *, unsigned short, unsigned short, unsigned int, unsigned short)
                        0x08052495    0x6a  Code  Gb  MX_Gtwy_Control.o [1]
LookUp_U16_S16(unsigned short *, unsigned short const *, short, short const *, unsigned int)
                        0x080527ed    0x4c  Code  Gb  MX_Gtwy_Control.o [1]
LookUp_U16_U16(unsigned short *, unsigned short const *, unsigned short, unsigned short const *, unsigned int)
                        0x0805237d    0x4c  Code  Gb  MX_Gtwy_Control.o [1]
LookUp_U16_U16_SAT(unsigned short *, unsigned short const *, unsigned short, unsigned short const *, unsigned int)
                        0x08052669    0x4c  Code  Gb  MX_Gtwy_Control.o [1]
MXGTW_AUX2_FLOW         0x20007394     0x4  Data  Gb  ap_cdata.o [1]
MXGTW_AUXHYD1           0x200072a0     0x4  Data  Gb  ap_cdata.o [1]
MXGTW_AUXHYD2           0x200072a4     0x4  Data  Gb  ap_cdata.o [1]
MXGTW_AUXHYD3           0x200072a8     0x4  Data  Gb  ap_cdata.o [1]
MXGTW_ECTGAUGE          0x200072ac     0x4  Data  Gb  ap_cdata.o [1]
MXGTW_ECTSNDINPUT       0x200072b0     0x4  Data  Gb  ap_cdata.o [1]
MXGTW_ECTSNDOUTPUT      0x200072b4     0x4  Data  Gb  ap_cdata.o [1]
MXGTW_ECU_DERATE_RPM    0x20007364     0x4  Data  Gb  ap_cdata.o [1]
MXGTW_ECU_DERATE_TORQUE
                        0x20007368     0x4  Data  Gb  ap_cdata.o [1]
MXGTW_ECU_GLOW_TEMP     0x20007338     0x4  Data  Gb  ap_cdata.o [1]
MXGTW_ECU_GLOW_TIME     0x2000733c     0x4  Data  Gb  ap_cdata.o [1]
MXGTW_EOPGAUGE          0x200072b8     0x4  Data  Gb  ap_cdata.o [1]
MXGTW_EOPSHUTDOWN       0x200072bc     0x4  Data  Gb  ap_cdata.o [1]
MXGTW_EOPSND            0x200072c0     0x4  Data  Gb  ap_cdata.o [1]
MXGTW_EOPWARN           0x200072c4     0x4  Data  Gb  ap_cdata.o [1]
MXGTW_FUELGAUGE         0x200072cc     0x4  Data  Gb  ap_cdata.o [1]
MXGTW_FUELSND           0x200072d0     0x4  Data  Gb  ap_cdata.o [1]
MXGTW_FUEL_PULL_TIME    0x200072c8     0x4  Data  Gb  ap_cdata.o [1]
MXGTW_GATEWAY_DIRECTION
                        0x2000731c     0x4  Data  Gb  ap_cdata.o [1]
MXGTW_GATEWAY_J1939_ID  0x20007314     0x4  Data  Gb  ap_cdata.o [1]
MXGTW_GATEWAY_J1939_MASK
                        0x20007318     0x4  Data  Gb  ap_cdata.o [1]
MXGTW_HOTGAUGE          0x200072d4     0x4  Data  Gb  ap_cdata.o [1]
MXGTW_HOTSND            0x200072d8     0x4  Data  Gb  ap_cdata.o [1]
MXGTW_HYD_RESPONSE_IN   0x20007330     0x4  Data  Gb  ap_cdata.o [1]
MXGTW_HYD_RESPONSE_OUT1
                        0x2000732c     0x4  Data  Gb  ap_cdata.o [1]
MXGTW_HYD_RESPONSE_OUT2
                        0x20007328     0x4  Data  Gb  ap_cdata.o [1]
MXGTW_HYD_RESPONSE_OUT3
                        0x20007324     0x4  Data  Gb  ap_cdata.o [1]
MXGTW_HYD_RESPONSE_OUT4
                        0x20007320     0x4  Data  Gb  ap_cdata.o [1]
MXGTW_OFFSET            0x200072dc     0x4  Data  Gb  ap_cdata.o [1]
MXGTW_OFFSET_AUX        0x20007344     0x4  Data  Gb  ap_cdata.o [1]
MXGTW_OPT_ANG_BLD       0x200072e8     0x4  Data  Gb  ap_cdata.o [1]
MXGTW_OPT_AUTO_IDLE     0x200072f0     0x4  Data  Gb  ap_cdata.o [1]
MXGTW_OPT_AUTO_SHIFT    0x200072f4     0x4  Data  Gb  ap_cdata.o [1]
MXGTW_OPT_AUX2_FLOW_HI  0x200073a4     0x4  Data  Gb  ap_cdata.o [1]
MXGTW_OPT_AUX2_FLOW_LOW
                        0x2000739c     0x4  Data  Gb  ap_cdata.o [1]
MXGTW_OPT_AUX2_FLOW_MED
                        0x200073a0     0x4  Data  Gb  ap_cdata.o [1]
MXGTW_OPT_AUX_OFFSET    0x20007340     0x4  Data  Gb  ap_cdata.o [1]
MXGTW_OPT_CRANK_INHIBIT
                        0x20007380     0x4  Data  Gb  ap_cdata.o [1]
MXGTW_OPT_DELUXE_M2     0x2000737c     0x4  Data  Gb  ap_cdata.o [1]
MXGTW_OPT_DIG_DEPTH     0x200072ec     0x4  Data  Gb  ap_cdata.o [1]
MXGTW_OPT_EMEA_CONTROLS_A
                        0x20007388     0x4  Data  Gb  ap_cdata.o [1]
MXGTW_OPT_EMEA_CONTROLS_B
                        0x2000738c     0x4  Data  Gb  ap_cdata.o [1]
MXGTW_OPT_EMEA_CONTROLS_C
                        0x20007390     0x4  Data  Gb  ap_cdata.o [1]
MXGTW_OPT_HIGH_FLOW     0x20007348     0x4  Data  Gb  ap_cdata.o [1]
MXGTW_OPT_HPMATCH       0x20007398     0x4  Data  Gb  ap_cdata.o [1]
MXGTW_OPT_HYD_XCHG      0x200072e4     0x4  Data  Gb  ap_cdata.o [1]
MXGTW_OPT_KEYLESS       0x20007370     0x4  Data  Gb  ap_cdata.o [1]
MXGTW_OPT_NA_2NDAUX     0x2000736c     0x4  Data  Gb  ap_cdata.o [1]
MXGTW_OPT_OVRLOAD       0x2000734c     0x4  Data  Gb  ap_cdata.o [1]
MXGTW_OPT_S2_2NDAUX     0x20007350     0x4  Data  Gb  ap_cdata.o [1]
MXGTW_OPT_TRACK_TENSION
                        0x20007384     0x4  Data  Gb  ap_cdata.o [1]
MXGTW_OPT_TWO_SPEED     0x20007334     0x4  Data  Gb  ap_cdata.o [1]
MXGTW_SERVICE_DEFAULT_HOURS
                        0x20007308     0x4  Data  Gb  ap_cdata.o [1]
MXGTW_SERVICE_DEFAULT_ICON
                        0x2000730c     0x4  Data  Gb  ap_cdata.o [1]
MXGTW_SERVICE_DEFAULT_TEXT
                        0x20007310     0x4  Data  Gb  ap_cdata.o [1]
MXGTW_STARTER_AUTOMATED_MAX_TIME
                        0x2000735c     0x4  Data  Gb  ap_cdata.o [1]
MXGTW_STARTER_AUTOMATED_OIL_TEMP
                        0x20007354     0x4  Data  Gb  ap_cdata.o [1]
MXGTW_STARTER_AUTOMATED_RPM_DISENGAGE_LEVEL
                        0x20007358     0x4  Data  Gb  ap_cdata.o [1]
MXGTW_STARTER_AUTOMATED_RPM_ENGAGE_LEVEL
                        0x20007360     0x4  Data  Gb  ap_cdata.o [1]
MXGTW_VBATTERYGAUGE     0x200072e0     0x4  Data  Gb  ap_cdata.o [1]
MXGTW_VITAL_DEFAULT_ICON
                        0x200072f8     0x4  Data  Gb  ap_cdata.o [1]
MXGTW_VITAL_DEFAULT_SHUTDOWN
                        0x200072fc     0x4  Data  Gb  ap_cdata.o [1]
MXGTW_VITAL_DEFAULT_UNITS
                        0x20007300     0x4  Data  Gb  ap_cdata.o [1]
MXGTW_VITAL_DEFAULT_WARNING
                        0x20007304     0x4  Data  Gb  ap_cdata.o [1]
MX_G_Fuel_Resolution_Timer_Init()
                        0x0806c403    0x3c  Code  Gb  mod_Outputs.o [1]
MX_G_LP_Filter_Adj_System_Reset(int *, rtDW_LP_Filter_Adj_System_MX_Gt *)
                        0x0804fa27    0x16  Code  Gb  mod_Library.o [1]
MX_G_Load_Moment_Sensor_Disable()
                        0x0804b7f7    0x24  Code  Gb  mod_Inputs.o [1]
MX_G_Load_Moment_Switch_Disable()
                        0x0804bab5    0x14  Code  Gb  mod_Inputs.o [1]
MX_G_hc_pair_ClosedLoop_v5_Init(unsigned short *, unsigned char *, unsigned char *, unsigned char *, rtDW_hc_pair_ClosedLoop_v5_MX_G *)
                        0x0805039d    0x3a  Code  Gb  mod_Library.o [1]
MX_G_output_pair_OpenLoop_Reset(unsigned short *, unsigned char *, unsigned char *, rtB_output_pair_OpenLoop_MX_Gtw *, rtDW_output_pair_OpenLoop_MX_Gt *)
                        0x08050d3f    0xa2  Code  Gb  mod_Library.o [1]
MX_Gt_LP_Filter_Adj_System_Init(int *, rtDW_LP_Filter_Adj_System_MX_Gt *)
                        0x0804fa11    0x16  Code  Gb  mod_Library.o [1]
MX_Gt_output_pair_OpenLoop_Init(unsigned short *, unsigned char *, unsigned char *, rtB_output_pair_OpenLoop_MX_Gtw *, rtDW_output_pair_OpenLoop_MX_Gt *)
                        0x08050c9d    0xa2  Code  Gb  mod_Library.o [1]
MX_Gtw_LP_Filter_Adj_Gain_Reset(int *, rtDW_LP_Filter_Adj_Gain_MX_Gtwy *)
                        0x0804f8e7    0x16  Code  Gb  mod_Library.o [1]
MX_Gtw_Load_Moment_Sensor_Reset()
                        0x0804b79b    0x5c  Code  Gb  mod_Inputs.o [1]
MX_Gtw_Load_Moment_Switch_Reset()
                        0x0804ba85    0x30  Code  Gb  mod_Inputs.o [1]
MX_Gtwy_C_Auto_Idle_Enable_Init()
                        0x0805ae81    0x68  Code  Gb  mod_System.o [1]
MX_Gtwy_C_Controller_State_Init()
                        0x0806095d    0xac  Code  Gb  mod_System.o [1]
MX_Gtwy_C_Fuel_Resolution_Timer()
                        0x0806c445    0xfe  Code  Gb  mod_Outputs.o [1]
MX_Gtwy_C_Fuel_Temperature_Init()
                        0x08048e55    0x8e  Code  Gb  mod_Inputs.o [1]
MX_Gtwy_C_Keyless_Entry_Disable()
                        0x08066587    0x1c  Code  Gb  mod_System.o [1]
MX_Gtwy_C_Ratiometric_Converter(unsigned short, unsigned short, unsigned short *, unsigned short)
                        0x0804f81d    0x3c  Code  Gb  mod_Library.o [1]
MX_Gtwy_C_Throttle_Command_Init()
                        0x08068ab9    0xce  Code  Gb  mod_System.o [1]
MX_Gtwy_C_hc_pair_ClosedLoop_v5(unsigned short, unsigned char, unsigned char, unsigned short, unsigned short, unsigned short, unsigned char, unsigned short *, unsigned char *, unsigned char *, unsigned char *, short *, rtB_hc_pair_ClosedLoop_v5_MX_Gt *, rtDW_hc_pair_ClosedLoop_v5_MX_G *, unsigned short, unsigned short, unsigned short, unsigned short, unsigned short, unsigned short, unsigned short, unsigned short, unsigned short, unsigned short, unsigned char)
                        0x08050427    0xfa  Code  Gb  mod_Library.o [1]
MX_Gtwy_C_hc_pair_OpenLoop_Init(unsigned short *, unsigned char *, unsigned char *, unsigned char *, rtDW_hc_pair_OpenLoop_MX_Gtwy_C *)
                        0x0804fc89    0x6c  Code  Gb  mod_Library.o [1]
MX_Gtwy_C_mod_GlowPlugIcon_Init()
                        0x080743fd    0x1a  Code  Gb  mod_Panel.o [1]
MX_Gtwy_C_mod_SeatBeltIcon_Init()
                        0x08074ad5    0x1e  Code  Gb  mod_Panel.o [1]
MX_Gtwy_C_mod_TwoSpeedIcon_Init()
                        0x08074be5    0x14  Code  Gb  mod_Panel.o [1]
MX_Gtwy_C_oc_stg_detection_Init(unsigned char *, unsigned char *, rtDW_oc_stg_detection_MX_Gtwy_C *)
                        0x08050521    0x22  Code  Gb  mod_Library.o [1]
MX_Gtwy_Co_EMEAControlMode_Init()
                        0x08064bc5   0x212  Code  Gb  mod_System.o [1]
MX_Gtwy_Co_FuelSec_ECUHold_Init()
                        0x0806bdd1    0x7c  Code  Gb  mod_Outputs.o [1]
MX_Gtwy_Co_LP_Filter_Adj_System(unsigned char, short, unsigned char, int *, rtDW_LP_Filter_Adj_System_MX_Gt *)
                        0x0804fa3d    0x80  Code  Gb  mod_Library.o [1]
MX_Gtwy_Co_LP_Filter_j43b_Reset(rtDW_LP_Filter_MX_Gtwy_Con_ntkm *)
                        0x0804f863     0xa  Code  Gb  mod_Library.o [1]
MX_Gtwy_Co_control_loop_Disable(short *, unsigned short *, rtB_control_loop_MX_Gtwy_Contro *, rtDW_control_loop_MX_Gtwy_Contr *)
                        0x0804fac9    0x16  Code  Gb  mod_Library.o [1]
MX_Gtwy_Co_mod_BatteryIcon_Init()
                        0x080737c9    0x1a  Code  Gb  mod_Panel.o [1]
MX_Gtwy_Co_mod_LockoutIcon_Init()
                        0x08074739    0x26  Code  Gb  mod_Panel.o [1]
MX_Gtwy_Co_mod_ServiceClockIcon()
                        0x08074b45    0xa0  Code  Gb  mod_Panel.o [1]
MX_Gtwy_Co_output_pair_OpenLoop(unsigned char, unsigned char, unsigned char, unsigned short, unsigned short, unsigned char, unsigned short, unsigned short, unsigned short *, unsigned char *, unsigned char *, rtB_output_pair_OpenLoop_MX_Gtw *, rtDW_output_pair_OpenLoop_MX_Gt *, unsigned short, unsigned short, unsigned short, unsigned short, unsigned short, unsigned short, unsigned short, unsigned short, unsigned short, unsigned char, unsigned short, unsigned short)
                        0x08050de1   0x434  Code  Gb  mod_Library.o [1]
MX_Gtwy_Con_Aux_Hydraulics_Init()
                        0x080693fd    0x48  Code  Gb  mod_Outputs.o [1]
MX_Gtwy_Con_CAN_Throttle_Update()
                        0x0806093f    0x1e  Code  Gb  mod_System.o [1]
MX_Gtwy_Con_Console_Sensor_Init()
                        0x08041f49    0x9e  Code  Gb  mod_Inputs.o [1]
MX_Gtwy_Con_Keyless_Entry_Reset()
                        0x080664c5    0xc2  Code  Gb  mod_System.o [1]
MX_Gtwy_Con_LP_Filter_as2q_Init(rtDW_LP_Filter_MX_Gtwy_Con_ntkm *)
                        0x0804f859     0xa  Code  Gb  mod_Library.o [1]
MX_Gtwy_Con_mod_EngineIcon_Init()
                        0x08073a5d    0x2e  Code  Gb  mod_Panel.o [1]
MX_Gtwy_Cont_ElectricAutomation()
                        0x08065855   0x3a0  Code  Gb  mod_System.o [1]
MX_Gtwy_Cont_Fuel_Primary_Relay()
                        0x0806b7c5   0x1f0  Code  Gb  mod_Outputs.o [1]
MX_Gtwy_Cont_Hydraulic_Exchange()
                        0x0806d859   0x146  Code  Gb  mod_Outputs.o [1]
MX_Gtwy_Cont_InformationDisplay()
                        0x080728b1   0x938  Code  Gb  mod_Panel.o [1]
MX_Gtwy_Cont_Keyless_Entry_Init()
                        0x080663f9    0xc2  Code  Gb  mod_System.o [1]
MX_Gtwy_Cont_Keyless_Indicators()
                        0x08073255   0x506  Code  Gb  mod_Panel.o [1]
MX_Gtwy_Cont_Keyless_Start_Init()
                        0x08067c77   0x148  Code  Gb  mod_System.o [1]
MX_Gtwy_Cont_LP_Filter_Adj_Gain(unsigned char, short, int *, rtDW_LP_Filter_Adj_Gain_MX_Gtwy *)
                        0x0804f8fd    0x60  Code  Gb  mod_Library.o [1]
MX_Gtwy_Cont_LP_Fitler_Adj_Gain(unsigned char, short, int *, rtDW_LP_Fitler_Adj_Gain_MX_Gtwy *)
                        0x0804e857    0x60  Code  Gb  mod_Inputs.o [1]
MX_Gtwy_Cont_Load_Moment_Sensor()
                        0x0804b821   0x21c  Code  Gb  mod_Inputs.o [1]
MX_Gtwy_Cont_Load_Moment_Switch()
                        0x0804bad9   0x1f8  Code  Gb  mod_Inputs.o [1]
MX_Gtwy_Cont_Normal_Pot_Disable()
                        0x08044355    0x2a  Code  Gb  mod_Inputs.o [1]
MX_Gtwy_Cont_SensorSupply1_Init()
                        0x0804d699    0x5e  Code  Gb  mod_Inputs.o [1]
MX_Gtwy_Cont_SensorSupply2_Init()
                        0x0804dac9    0x74  Code  Gb  mod_Inputs.o [1]
MX_Gtwy_Cont_SwitchedPower_Init()
                        0x0806ee55    0x4a  Code  Gb  mod_Outputs.o [1]
MX_Gtwy_Cont_control_loop_Reset(rtDW_control_loop_MX_Gtwy_Contr *)
                        0x0804fac3     0x6  Code  Gb  mod_Library.o [1]
MX_Gtwy_Contr_AutoIdle_Ind_Init()
                        0x0807013d    0x4e  Code  Gb  mod_Panel.o [1]
MX_Gtwy_Contr_Backlighting_Init()
                        0x08070b2d    0x2c  Code  Gb  mod_Panel.o [1]
MX_Gtwy_Contr_CAN_Throttle_Init()
                        0x0805fd49    0xb0  Code  Gb  mod_System.o [1]
MX_Gtwy_Contr_FuelPri_HVAC_Init()
                        0x0806bdb9     0xc  Code  Gb  mod_Outputs.o [1]
MX_Gtwy_Contr_Machine_Lock_Init()
                        0x08068887    0x38  Code  Gb  mod_System.o [1]
MX_Gtwy_Contr_Remove_OOR_Levels(unsigned short, unsigned short *, rtDW_Remove_OOR_Levels_MX_Gtwy_ *, unsigned short, unsigned short)
                        0x0804f971    0x2a  Code  Gb  mod_Library.o [1]
MX_Gtwy_Contr_control_loop_Init(rtDW_control_loop_MX_Gtwy_Contr *)
                        0x0804fabd     0x6  Code  Gb  mod_Library.o [1]
MX_Gtwy_Contr_mod_FuelLevelIcon()
                        0x08073e09    0x5a  Code  Gb  mod_Panel.o [1]
MX_Gtwy_Contr_mod_HourMeterIcon()
                        0x08074541    0x82  Code  Gb  mod_Panel.o [1]
MX_Gtwy_Contr_mod_HydraulicIcon()
                        0x080745e5   0x118  Code  Gb  mod_Panel.o [1]
MX_Gtwy_Contr_mod_JobClock1Icon()
                        0x080746fd    0x1e  Code  Gb  mod_Panel.o [1]
MX_Gtwy_Contr_mod_JobClock2Icon()
                        0x0807471b    0x1e  Code  Gb  mod_Panel.o [1]
MX_Gtwy_Contro_Auto_Idle_Enable()
                        0x0805aee9   0x2bc  Code  Gb  mod_System.o [1]
MX_Gtwy_Contro_Controller_State()
                        0x08060a25   0x7b6  Code  Gb  mod_System.o [1]
MX_Gtwy_Contro_EngineSpeed_Init()
                        0x0804775d    0xec  Code  Gb  mod_Inputs.o [1]
MX_Gtwy_Contro_Fuel_Temperature()
                        0x08048f19   0x716  Code  Gb  mod_Inputs.o [1]
MX_Gtwy_Contro_Normal_Pot_Reset()
                        0x08044293    0xc2  Code  Gb  mod_Inputs.o [1]
MX_Gtwy_Contro_RightPot_Disable()
                        0x080449c3    0x26  Code  Gb  mod_Inputs.o [1]
MX_Gtwy_Contro_Throttle_Command()
                        0x08068bb5   0x808  Code  Gb  mod_System.o [1]
MX_Gtwy_Contro_dout_chk_Disable(unsigned char *, rtDW_dout_chk_MX_Gtwy_Control *)
                        0x0806ba47     0xa  Code  Gb  mod_Outputs.o [1]
MX_Gtwy_Contro_hc_pair_OpenLoop(unsigned short, unsigned char, unsigned char, unsigned short, unsigned short, unsigned short, unsigned char, unsigned short *, unsigned char *, unsigned char *, unsigned char *, rtDW_hc_pair_OpenLoop_MX_Gtwy_C *, unsigned short, unsigned short, unsigned short, unsigned short, unsigned short, unsigned short, unsigned short, unsigned short)
                        0x0804fd61   0x63c  Code  Gb  mod_Library.o [1]
MX_Gtwy_Contro_mod_ECTIcon_Init()
                        0x080738eb    0x1a  Code  Gb  mod_Panel.o [1]
MX_Gtwy_Contro_mod_GlowPlugIcon()
                        0x08074425   0x118  Code  Gb  mod_Panel.o [1]
MX_Gtwy_Contro_mod_RPMIcon_Init()
                        0x080749d3    0x1a  Code  Gb  mod_Panel.o [1]
MX_Gtwy_Contro_mod_SeatBeltIcon()
                        0x08074af3    0x4c  Code  Gb  mod_Panel.o [1]
MX_Gtwy_Contro_mod_TwoSpeedIcon()
                        0x08074c01    0xfe  Code  Gb  mod_Panel.o [1]
MX_Gtwy_Contro_oc_stg_detection(unsigned char, unsigned char, unsigned char *, unsigned char *, rtDW_oc_stg_detection_MX_Gtwy_C *, unsigned short, unsigned short)
                        0x08050565   0x176  Code  Gb  mod_Library.o [1]
MX_Gtwy_Contro_relay_oc_Disable(unsigned char *, unsigned char *, rtDW_relay_oc_MX_Gtwy_Control *)
                        0x0805129f     0xe  Code  Gb  mod_Library.o [1]
MX_Gtwy_Control_AirFilter()
                        0x080400e7   0x56e  Code  Gb  mod_Inputs.o [1]
MX_Gtwy_Control_AirFilter_Init()
                        0x08040041    0xa6  Code  Gb  mod_Inputs.o [1]
MX_Gtwy_Control_AutoIdle()
                        0x0805b235   0x908  Code  Gb  mod_System.o [1]
MX_Gtwy_Control_AutoIdle_Ind()
                        0x0807018b   0x2c4  Code  Gb  mod_Panel.o [1]
MX_Gtwy_Control_AutoIdle_Init()
                        0x0805b1a5    0x86  Code  Gb  mod_System.o [1]
MX_Gtwy_Control_Aux_Enable()
                        0x0805fb25   0x216  Code  Gb  mod_System.o [1]
MX_Gtwy_Control_Aux_Enable_Init()
                        0x0805f8bd   0x24c  Code  Gb  mod_System.o [1]
MX_Gtwy_Control_Aux_Hydraulics()
                        0x08069471   0xc28  Code  Gb  mod_Outputs.o [1]
MX_Gtwy_Control_Aux_Ind()
                        0x08070501   0x62c  Code  Gb  mod_Panel.o [1]
MX_Gtwy_Control_Aux_Ind_Init()
                        0x0807044f    0xb2  Code  Gb  mod_Panel.o [1]
MX_Gtwy_Control_Aux_Pot()
                        0x08040905  0x11d6  Code  Gb  mod_Inputs.o [1]
MX_Gtwy_Control_Aux_Pot_Init()
                        0x080407ad   0x13a  Code  Gb  mod_Inputs.o [1]
MX_Gtwy_Control_B       0x200043a0   0x260  Data  Gb  MX_Gtwy_Control.o [1]
MX_Gtwy_Control_Backlighting()
                        0x08070b59    0xb0  Code  Gb  mod_Panel.o [1]
MX_Gtwy_Control_Buttons()
                        0x08041b15   0x430  Code  Gb  mod_Inputs.o [1]
MX_Gtwy_Control_Buttons_Init()
                        0x08041adb    0x2c  Code  Gb  mod_Inputs.o [1]
MX_Gtwy_Control_Buzzer()
                        0x0806a911   0x4b8  Code  Gb  mod_Outputs.o [1]
MX_Gtwy_Control_Buzzer_Init()
                        0x0806a839    0x88  Code  Gb  mod_Outputs.o [1]
MX_Gtwy_Control_CAN_Throttle()
                        0x0805fe29   0xb16  Code  Gb  mod_System.o [1]
MX_Gtwy_Control_Console_Sensor()
                        0x08041fed   0x5ae  Code  Gb  mod_Inputs.o [1]
MX_Gtwy_Control_ConstP  0x0808f3dc   0x3d8  Data  Gb  MX_Gtwy_Control_data.o [1]
MX_Gtwy_Control_DWork   0x20002ffc   0x3fc  Data  Gb  MX_Gtwy_Control.o [1]
MX_Gtwy_Control_Derate()
                        0x080612d5   0x678  Code  Gb  mod_System.o [1]
MX_Gtwy_Control_Derate_Init()
                        0x080611db    0xaa  Code  Gb  mod_System.o [1]
MX_Gtwy_Control_Diverter()
                        0x0806ae55   0x61e  Code  Gb  mod_Outputs.o [1]
MX_Gtwy_Control_Diverter_Init()
                        0x0806add5    0x74  Code  Gb  mod_Outputs.o [1]
MX_Gtwy_Control_Dump_Valve()
                        0x0806b4b3   0x27c  Code  Gb  mod_Outputs.o [1]
MX_Gtwy_Control_Dump_Valve_Init()
                        0x0806b473    0x40  Code  Gb  mod_Outputs.o [1]
MX_Gtwy_Control_ECT()   0x08042f3d   0xb9e  Code  Gb  mod_Inputs.o [1]
MX_Gtwy_Control_ECT_Init()
                        0x08042dbf   0x154  Code  Gb  mod_Inputs.o [1]
MX_Gtwy_Control_EMEAControlMode()
                        0x08064dfd   0x9f2  Code  Gb  mod_System.o [1]
MX_Gtwy_Control_EOP()   0x08045f8d   0xcf0  Code  Gb  mod_Inputs.o [1]
MX_Gtwy_Control_EOP_Init()
                        0x08045dbd   0x1b2  Code  Gb  mod_Inputs.o [1]
MX_Gtwy_Control_Eco_Mode()
                        0x08046cf1   0x214  Code  Gb  mod_Inputs.o [1]
MX_Gtwy_Control_Eco_Mode_Init()
                        0x08046c95    0x3a  Code  Gb  mod_Inputs.o [1]
MX_Gtwy_Control_Engine()
                        0x08065cad   0x73e  Code  Gb  mod_System.o [1]
MX_Gtwy_Control_EngineSpeed()
                        0x0804787d   0x48e  Code  Gb  mod_Inputs.o [1]
MX_Gtwy_Control_Engine_Init()
                        0x08065bf5    0x70  Code  Gb  mod_System.o [1]
MX_Gtwy_Control_ErrorCode(unsigned char, unsigned short *, unsigned short)
                        0x0804f79d    0x16  Code  Gb  mod_Library.o [1]
MX_Gtwy_Control_FrontLight()
                        0x08070c39   0x1c2  Code  Gb  mod_Panel.o [1]
MX_Gtwy_Control_FrontLight_Init()
                        0x08070c09    0x2a  Code  Gb  mod_Panel.o [1]
MX_Gtwy_Control_FuelLevel()
                        0x08048539   0x900  Code  Gb  mod_Inputs.o [1]
MX_Gtwy_Control_FuelLevel_Init()
                        0x08048439    0xea  Code  Gb  mod_Inputs.o [1]
MX_Gtwy_Control_FuelPri_HVAC()
                        0x0806bdc5     0xc  Code  Gb  mod_Outputs.o [1]
MX_Gtwy_Control_FuelSec_ECUHold()
                        0x0806bec5   0x53e  Code  Gb  mod_Outputs.o [1]
MX_Gtwy_Control_GlowPlug()
                        0x0806c7a9   0x86a  Code  Gb  mod_Outputs.o [1]
MX_Gtwy_Control_GlowPlug_Init()
                        0x0806c69d    0xc4  Code  Gb  mod_Outputs.o [1]
MX_Gtwy_Control_HCFilter1()
                        0x080496b1   0x3d2  Code  Gb  mod_Inputs.o [1]
MX_Gtwy_Control_HCFilter1_Init()
                        0x0804962f    0x7e  Code  Gb  mod_Inputs.o [1]
MX_Gtwy_Control_HVAC_Relay()
                        0x0806bc1d   0x198  Code  Gb  mod_Outputs.o [1]
MX_Gtwy_Control_HVAC_Relay_Init()
                        0x0806bbd7    0x3c  Code  Gb  mod_Outputs.o [1]
MX_Gtwy_Control_HydOilTemp()
                        0x0804a3d9   0x930  Code  Gb  mod_Inputs.o [1]
MX_Gtwy_Control_HydOilTemp_Init()
                        0x0804a229   0x1a0  Code  Gb  mod_Inputs.o [1]
MX_Gtwy_Control_Hyd_Bypass()
                        0x0806d0a9   0x398  Code  Gb  mod_Outputs.o [1]
MX_Gtwy_Control_Hyd_Bypass_Init()
                        0x0806d013    0x60  Code  Gb  mod_Outputs.o [1]
MX_Gtwy_Control_Hyd_Enable()
                        0x0806d4a1   0x36c  Code  Gb  mod_Outputs.o [1]
MX_Gtwy_Control_Hyd_Enable_Init()
                        0x0806d441    0x54  Code  Gb  mod_Outputs.o [1]
MX_Gtwy_Control_Joystick_Pots()
                        0x0804ad09    0xe4  Code  Gb  mod_Inputs.o [1]
MX_Gtwy_Control_Key()   0x0804ae3d   0x23a  Code  Gb  mod_Inputs.o [1]
MX_Gtwy_Control_Key_Init()
                        0x0804aded    0x36  Code  Gb  mod_Inputs.o [1]
MX_Gtwy_Control_Keyless_Entry()
                        0x08066601   0x810  Code  Gb  mod_System.o [1]
MX_Gtwy_Control_Keyless_Start()
                        0x08067de9   0xa9e  Code  Gb  mod_System.o [1]
MX_Gtwy_Control_LP_Filter(short, short *, rtDW_LP_Filter_MX_Gtwy_Control *)
                        0x0804f7b9    0x64  Code  Gb  mod_Library.o [1]
MX_Gtwy_Control_LP_Filter_Init(rtDW_LP_Filter_MX_Gtwy_Control *)
                        0x0804f7b3     0x6  Code  Gb  mod_Library.o [1]
MX_Gtwy_Control_LP_Filter_dijo(unsigned short, short *, rtDW_LP_Filter_MX_Gtwy_Con_ntkm *)
                        0x0804f86d    0x64  Code  Gb  mod_Library.o [1]
MX_Gtwy_Control_Lights()
                        0x0806da1d   0x2a0  Code  Gb  mod_Outputs.o [1]
MX_Gtwy_Control_Lights_Init()
                        0x0806d99f    0x56  Code  Gb  mod_Outputs.o [1]
MX_Gtwy_Control_Load_Sense()
                        0x0804bd55   0x588  Code  Gb  mod_Inputs.o [1]
MX_Gtwy_Control_Load_Sense_Init()
                        0x0804bcd1    0x6a  Code  Gb  mod_Inputs.o [1]
MX_Gtwy_Control_M       0x08091238     0x4  Data  Gb  MX_Gtwy_Control.o [1]
MX_Gtwy_Control_M_      0x200075a0     0x2  Data  Gb  MX_Gtwy_Control.o [1]
MX_Gtwy_Control_Machine_Lock()
                        0x080688d9   0x1e0  Code  Gb  mod_System.o [1]
MX_Gtwy_Control_Normal_Pot()
                        0x08044389   0x452  Code  Gb  mod_Inputs.o [1]
MX_Gtwy_Control_Normal_Pot_Init()
                        0x080441b3    0xe0  Code  Gb  mod_Inputs.o [1]
MX_Gtwy_Control_Offset()
                        0x0806ddb5   0x8bc  Code  Gb  mod_Outputs.o [1]
MX_Gtwy_Control_Offset_Init()
                        0x0806dcc1    0x78  Code  Gb  mod_Outputs.o [1]
MX_Gtwy_Control_Offset_Pot()
                        0x0804ca99   0xc00  Code  Gb  mod_Inputs.o [1]
MX_Gtwy_Control_Offset_Pot_Init()
                        0x0804c929   0x14a  Code  Gb  mod_Inputs.o [1]
MX_Gtwy_Control_PB_Valve()
                        0x0806e6f1   0x1d2  Code  Gb  mod_Outputs.o [1]
MX_Gtwy_Control_PB_Valve_Init()
                        0x0806e671    0x4e  Code  Gb  mod_Outputs.o [1]
MX_Gtwy_Control_RightPot()
                        0x08044a0d   0x920  Code  Gb  mod_Inputs.o [1]
MX_Gtwy_Control_RightPot_Init()
                        0x08044899    0x9e  Code  Gb  mod_Inputs.o [1]
MX_Gtwy_Control_RightPot_Reset()
                        0x0804493d    0x86  Code  Gb  mod_Inputs.o [1]
MX_Gtwy_Control_SensorSupply1()
                        0x0804d719   0x3ac  Code  Gb  mod_Inputs.o [1]
MX_Gtwy_Control_SensorSupply2()
                        0x0804db3d   0x34a  Code  Gb  mod_Inputs.o [1]
MX_Gtwy_Control_Starter()
                        0x0806e995   0x4c0  Code  Gb  mod_Outputs.o [1]
MX_Gtwy_Control_Starter_Init()
                        0x0806e8cd    0x7e  Code  Gb  mod_Outputs.o [1]
MX_Gtwy_Control_SwitchedPower()
                        0x0806eee5   0x1e4  Code  Gb  mod_Outputs.o [1]
MX_Gtwy_Control_Throttle()
                        0x0804df99   0x86a  Code  Gb  mod_Inputs.o [1]
MX_Gtwy_Control_Throttle_Init()
                        0x0804de91    0xe6  Code  Gb  mod_Inputs.o [1]
MX_Gtwy_Control_Truth_Table(unsigned char, unsigned char *)
                        0x08042611    0x22  Code  Gb  mod_Inputs.o [1]
MX_Gtwy_Control_Two_Speed()
                        0x0806fd29   0x3cc  Code  Gb  mod_Outputs.o [1]
MX_Gtwy_Control_Two_Speed_Init()
                        0x0806fc1d    0xee  Code  Gb  mod_Outputs.o [1]
MX_Gtwy_Control_VBattery()
                        0x0804f561   0x214  Code  Gb  mod_Inputs.o [1]
MX_Gtwy_Control_VBattery_Init()
                        0x0804f477    0xd4  Code  Gb  mod_Inputs.o [1]
MX_Gtwy_Control_Voltage_Limiter(unsigned short, unsigned short, unsigned short *, unsigned short)
                        0x08050c43    0x5a  Code  Gb  mod_Library.o [1]
MX_Gtwy_Control_Y       0x200056fc    0x84  Data  Gb  MX_Gtwy_Control.o [1]
MX_Gtwy_Control_control_loop(unsigned char, unsigned short, unsigned short, short *, unsigned short *, rtB_control_loop_MX_Gtwy_Contro *, rtDW_control_loop_MX_Gtwy_Contr *, unsigned short, unsigned short)
                        0x0804fadf   0x19c  Code  Gb  mod_Library.o [1]
MX_Gtwy_Control_dout_chk(unsigned char, unsigned char, unsigned char, unsigned char *, rtB_dout_chk_MX_Gtwy_Control *, rtDW_dout_chk_MX_Gtwy_Control *, unsigned short, unsigned short)
                        0x0806ba51   0x186  Code  Gb  mod_Outputs.o [1]
MX_Gtwy_Control_dout_chk_Init(unsigned char *, rtB_dout_chk_MX_Gtwy_Control *, rtDW_dout_chk_MX_Gtwy_Control *)
                        0x0806b9ff    0x26  Code  Gb  mod_Outputs.o [1]
MX_Gtwy_Control_dout_chk_Reset(rtB_dout_chk_MX_Gtwy_Control *, rtDW_dout_chk_MX_Gtwy_Control *)
                        0x0806ba25    0x22  Code  Gb  mod_Outputs.o [1]
MX_Gtwy_Control_hc_hsd(unsigned char, unsigned short, unsigned short, unsigned short, unsigned char *, rtB_hc_hsd_MX_Gtwy_Control *, rtDW_hc_hsd_MX_Gtwy_Control *, unsigned short, unsigned short, unsigned short)
                        0x08051b71   0x316  Code  Gb  mod_Library.o [1]
MX_Gtwy_Control_hc_hsd_Disable(unsigned char *, rtDW_hc_hsd_MX_Gtwy_Control *)
                        0x08051b67     0xa  Code  Gb  mod_Library.o [1]
MX_Gtwy_Control_hc_hsd_Init(unsigned char *, rtB_hc_hsd_MX_Gtwy_Control *, rtDW_hc_hsd_MX_Gtwy_Control *)
                        0x08051aff    0x36  Code  Gb  mod_Library.o [1]
MX_Gtwy_Control_hc_hsd_Reset(rtB_hc_hsd_MX_Gtwy_Control *, rtDW_hc_hsd_MX_Gtwy_Control *)
                        0x08051b35    0x32  Code  Gb  mod_Library.o [1]
MX_Gtwy_Control_initialize
                        0x080547e1   0x8d0  Code  Gb  MX_Gtwy_Control.o [1]
MX_Gtwy_Control_mod_AuxIcon()
                        0x0807375b    0x6e  Code  Gb  mod_Panel.o [1]
MX_Gtwy_Control_mod_BatteryIcon()
                        0x080737e9   0x102  Code  Gb  mod_Panel.o [1]
MX_Gtwy_Control_mod_ECTIcon()
                        0x08073911   0x142  Code  Gb  mod_Panel.o [1]
MX_Gtwy_Control_mod_EngineIcon()
                        0x08073a91   0x35c  Code  Gb  mod_Panel.o [1]
MX_Gtwy_Control_mod_LockoutIcon()
                        0x08074781   0x252  Code  Gb  mod_Panel.o [1]
MX_Gtwy_Control_mod_RPMIcon()
                        0x080749f9    0xd2  Code  Gb  mod_Panel.o [1]
MX_Gtwy_Control_relay_oc(unsigned char, unsigned char, unsigned char, unsigned char, unsigned char *, unsigned char *, rtB_relay_oc_MX_Gtwy_Control *, rtDW_relay_oc_MX_Gtwy_Control *, unsigned short, unsigned short, unsigned short)
                        0x080512ad   0x852  Code  Gb  mod_Library.o [1]
MX_Gtwy_Control_relay_oc_Init(unsigned char *, unsigned char *, rtB_relay_oc_MX_Gtwy_Control *, rtDW_relay_oc_MX_Gtwy_Control *)
                        0x08051219    0x86  Code  Gb  mod_Library.o [1]
MX_Gtwy_Control_step    0x08052bcd  0x1aa4  Code  Gb  MX_Gtwy_Control.o [1]
MX_Gtwy_ElectricAutomation_Init()
                        0x080657ef    0x46  Code  Gb  mod_System.o [1]
MX_Gtwy_Fuel_Primary_Relay_Init()
                        0x0806b767    0x40  Code  Gb  mod_Outputs.o [1]
MX_Gtwy_Hydraulic_Exchange_Init()
                        0x0806d80d    0x4c  Code  Gb  mod_Outputs.o [1]
MX_Gtwy_InformationDisplay_Init()
                        0x08072711   0x17c  Code  Gb  mod_Panel.o [1]
MX_Gtwy_Keyless_Indicators_Init()
                        0x080731e9    0x52  Code  Gb  mod_Panel.o [1]
MX_Gtwy_LP_Filter_Adj_Gain_Init(int *, rtDW_LP_Filter_Adj_Gain_MX_Gtwy *)
                        0x0804f8d1    0x16  Code  Gb  mod_Library.o [1]
MX_Gtwy_LP_Filter_Adj_Gain_hwrc(unsigned char, short, int *, rtDW_LP_Filter_Adj_Gain_MX_j5ng *)
                        0x0804f9b1    0x60  Code  Gb  mod_Library.o [1]
MX_Gtwy_LP_Fitler_Adj_Gain_Init(int *, rtDW_LP_Fitler_Adj_Gain_MX_Gtwy *)
                        0x0804e841    0x16  Code  Gb  mod_Inputs.o [1]
MX_Gtwy_Load_Moment_Sensor_Init()
                        0x0804b725    0x76  Code  Gb  mod_Inputs.o [1]
MX_Gtwy_Load_Moment_Switch_Init()
                        0x0804ba45    0x3a  Code  Gb  mod_Inputs.o [1]
MX_Gtwy_Remove_OOR_Levels_Reset(unsigned short *, rtDW_Remove_OOR_Levels_MX_Gtwy_ *)
                        0x0804f967     0xa  Code  Gb  mod_Library.o [1]
MX_Gtwy__Engine_Oil_Temperature()
                        0x08047d9d   0x43a  Code  Gb  mod_Inputs.o [1]
MX_Gtwy__Remove_OOR_Levels_Init(unsigned short *, rtDW_Remove_OOR_Levels_MX_Gtwy_ *)
                        0x0804f95d     0xa  Code  Gb  mod_Library.o [1]
MX_Gtwy__hc_pair_OpenLoop_Reset(unsigned short *, unsigned char *, unsigned char *, unsigned char *, rtDW_hc_pair_OpenLoop_MX_Gtwy_C *)
                        0x0804fcf5    0x6c  Code  Gb  mod_Library.o [1]
MX_Gtwy__mod_FuelLevelIcon_Init()
                        0x08073ded    0x18  Code  Gb  mod_Panel.o [1]
MX_Gtwy__mod_GeneralWarningIcon()
                        0x08073ea5   0x558  Code  Gb  mod_Panel.o [1]
MX_Gtwy__mod_HydraulicIcon_Init()
                        0x080745c3    0x16  Code  Gb  mod_Panel.o [1]
MX_Gtwy__oc_stg_detection_Reset(unsigned char *, unsigned char *, rtDW_oc_stg_detection_MX_Gtwy_C *)
                        0x08050543    0x22  Code  Gb  mod_Library.o [1]
MX_Gtwy__output_pair_ClosedLoop(unsigned short, unsigned char, unsigned short, unsigned short, unsigned char, unsigned char, unsigned short, unsigned short, unsigned short *, unsigned char *, short *, unsigned short *, unsigned char *, rtB_output_pair_ClosedLoop_MX_G *, rtDW_output_pair_ClosedLoop_MX_ *, unsigned short, unsigned short, unsigned short, unsigned short, unsigned short, unsigned short, unsigned short, unsigned short, unsigned short, unsigned short, unsigned char, unsigned short, unsigned short)
                        0x0805083b   0x408  Code  Gb  mod_Library.o [1]
MX_Gtwy__output_single_OpenLoop(unsigned short, unsigned char, unsigned short, unsigned short, unsigned char *, unsigned short *, rtB_output_single_OpenLoop_MX_G *, rtDW_output_single_OpenLoop_MX_ *, unsigned short, unsigned short, unsigned short, unsigned short, unsigned char, unsigned short)
                        0x08051eff   0x186  Code  Gb  mod_Library.o [1]
MX_LP_Filter_Adj_Gain_gfud_Init(int *, rtDW_LP_Filter_Adj_Gain_MX_j5ng *)
                        0x0804f99b    0x16  Code  Gb  mod_Library.o [1]
MX__Engine_Oil_Temperature_Init()
                        0x08047d0b    0x88  Code  Gb  mod_Inputs.o [1]
MX__hc_pair_ClosedLoop_v5_Reset(unsigned short *, unsigned char *, unsigned char *, unsigned char *, rtDW_hc_pair_ClosedLoop_v5_MX_G *)
                        0x080503d7    0x32  Code  Gb  mod_Library.o [1]
MX__mod_GeneralWarningIcon_Init()
                        0x08073e69    0x2e  Code  Gb  mod_Panel.o [1]
MX__output_pair_ClosedLoop_Init(unsigned short *, unsigned char *, unsigned char *, rtB_output_pair_ClosedLoop_MX_G *, rtDW_output_pair_ClosedLoop_MX_ *)
                        0x080506db    0xa4  Code  Gb  mod_Library.o [1]
MX__output_single_OpenLoop_Init(unsigned char *, rtB_output_single_OpenLoop_MX_G *, rtDW_output_single_OpenLoop_MX_ *)
                        0x08051e87    0x3a  Code  Gb  mod_Library.o [1]
MX_output_pair_ClosedLoop_Reset(unsigned short *, unsigned char *, unsigned char *, rtB_output_pair_ClosedLoop_MX_G *, rtDW_output_pair_ClosedLoop_MX_ *)
                        0x0805077f    0xa4  Code  Gb  mod_Library.o [1]
MX_output_single_OpenLoop_Reset(unsigned char *, rtB_output_single_OpenLoop_MX_G *, rtDW_output_single_OpenLoop_MX_ *)
                        0x08051ec1    0x26  Code  Gb  mod_Library.o [1]
M_hc_pair_ClosedLoop_v5_Disable(short *, rtB_hc_pair_ClosedLoop_v5_MX_Gt *, rtDW_hc_pair_ClosedLoop_v5_MX_G *)
                        0x08050409    0x1e  Code  Gb  mod_Library.o [1]
Msg2RPDO1(hw_can_msg_t *)
                        0x0808afbd    0xe6  Code  Gb  ap_bservice_CANOpen.o [1]
Msg2RPDO2(hw_can_msg_t *)
                        0x0808b0a3    0x4e  Code  Gb  ap_bservice_CANOpen.o [1]
NVIC_DisableIRQ         0x0807c6d5    0x18  Code  Lc  stf4_bsp_adc.o [1]
NVIC_DisableIRQ         0x0807d38d    0x18  Code  Lc  stf4_bsp_fin.o [1]
NVIC_EnableIRQ          0x0807c6bd    0x18  Code  Lc  stf4_bsp_adc.o [1]
NVIC_EnableIRQ          0x080796c9    0x18  Code  Lc  stf4_bsp_can.o [1]
NVIC_EnableIRQ          0x0807bedd    0x16  Code  Lc  stf4_bsp_com.o [1]
NVIC_EnableIRQ          0x0807d375    0x18  Code  Lc  stf4_bsp_fin.o [1]
NVIC_EnableIRQ          0x0807a5ad    0x18  Code  Lc  stf4_iic.o [1]
NVIC_SetPendingIRQ      0x080796e1    0x18  Code  Lc  stf4_bsp_can.o [1]
NVIC_SetPriority        0x0807bd59    0x2c  Code  Lc  stf4_bsp_clock.o [1]
NVIC_SetPriority        0x08074fb7    0x30  Code  Lc  stf4_bsp_mcu.o [1]
NVIC_SetPriorityGrouping
                        0x08074f95    0x22  Code  Lc  stf4_bsp_mcu.o [1]
NVIC_SystemReset        0x08074fe7    0x20  Code  Lc  stf4_bsp_mcu.o [1]
OperatorSettings_rx_callback(hw_can_msg_t *)
                        0x0808cb99    0x58  Code  Gb  ap_deluxeG55.o [1]
PERIOD_COUNTS_PER_SECOND
                        0x200073f4     0x4  Data  Gb  hw_fin.o [1]
PWD_NumberSelected      0x20007526     0x2  Data  Gb  MX_Gtwy_Control.o [1]
PWR_BackupAccessCmd     0x0807fedd    0x2a  Code  Gb  stm32f4xx_pwr.o [1]
PWR_BackupRegulatorCmd  0x0807ff07    0x28  Code  Gb  stm32f4xx_pwr.o [1]
PanelButtonRX_callback(hw_can_msg_t *)
                        0x08058815    0x28  Code  Gb  ap_can.o [1]
PanelButtonStateIntRX   0x20006078    0x30  Data  Gb  ap_can.o [1]
PanelIORX_callback(hw_can_msg_t *)
                        0x08059e11    0x1c  Code  Gb  ap_can.o [1]
PasswordEntry()         0x0808dc37   0x460  Code  Gb  ap_keylessentry.o [1]
PasswordEntry()::counter
                        0x20007490     0x2  Data  Lc  ap_keylessentry.o [1]
PasswordEntry()::flag_lock
                        0x200075e8     0x1  Data  Lc  ap_keylessentry.o [1]
PasswordEntry()::position
                        0x200075e9     0x1  Data  Lc  ap_keylessentry.o [1]
PasswordEntry()::state_entry
                        0x200005e3     0x1  Data  Lc  ap_keylessentry.o [1]
PasswordEntry()::state_keypress
                        0x200005e4     0x1  Data  Lc  ap_keylessentry.o [1]
PasswordEntry()::state_lock
                        0x200075e7     0x1  Data  Lc  ap_keylessentry.o [1]
PasswordVerifier::validateHash(unsigned char const *, unsigned long long)
                        0x0808e5ed    0x4c  Code  Gb  passwordverifier.o [1]
PwdData_rx_callback(hw_can_msg_t *)
                        0x08086359   0x30c  Code  Gb  ap_deluxeG5.o [1]
QueueCurrentUser(unsigned char, unsigned short)
                        0x080577dd    0x74  Code  Gb  ap_eeprom.o [1]
QueueEventDiag(unsigned char, unsigned char, unsigned char, unsigned char, unsigned int)
                        0x08057515   0x114  Code  Gb  ap_eeprom.o [1]
QueueEventDiagECU(unsigned char, unsigned int, unsigned char, unsigned char, unsigned int)
                        0x08057639   0x10a  Code  Gb  ap_eeprom.o [1]
QueueServiceDiag(unsigned short, unsigned short, unsigned char, unsigned char, unsigned char)
                        0x08057755    0x84  Code  Gb  ap_eeprom.o [1]
QueueSoftwareUpdate(unsigned char, unsigned short, unsigned short, unsigned short)
                        0x08057859    0x7c  Code  Gb  ap_eeprom.o [1]
RAMVEC$$Base            0x20000000           --   Gb  - Linker created -
RAMVEC$$Length          0x00000440           --   Gb  - Linker created -
RAMVEC$$Limit           0x20000440           --   Gb  - Linker created -
RCC_AHB1PeriphClockCmd  0x08079ef5    0x5e  Code  Gb  stm32f4xx_rcc.o [1]
RCC_AHB1PeriphResetCmd  0x0807a01d    0x62  Code  Gb  stm32f4xx_rcc.o [1]
RCC_AHB2PeriphResetCmd  0x0807a081    0x62  Code  Gb  stm32f4xx_rcc.o [1]
RCC_AHB3PeriphResetCmd  0x0807a0e3    0x62  Code  Gb  stm32f4xx_rcc.o [1]
RCC_APB1PeriphClockCmd  0x08079f59    0x62  Code  Gb  stm32f4xx_rcc.o [1]
RCC_APB1PeriphResetCmd  0x0807a149    0x62  Code  Gb  stm32f4xx_rcc.o [1]
RCC_APB2PeriphClockCmd  0x08079fbb    0x62  Code  Gb  stm32f4xx_rcc.o [1]
RCC_APB2PeriphResetCmd  0x0807a1ad    0x62  Code  Gb  stm32f4xx_rcc.o [1]
RCC_GetClocksFreq       0x08079c49   0x118  Code  Gb  stm32f4xx_rcc.o [1]
RCC_GetFlagStatus       0x0807a229    0xbe  Code  Gb  stm32f4xx_rcc.o [1]
RCC_LSEConfig           0x08079bed    0x5c  Code  Gb  stm32f4xx_rcc.o [1]
RCC_RTCCLKCmd           0x08079ea3    0x2a  Code  Gb  stm32f4xx_rcc.o [1]
RCC_RTCCLKConfig        0x08079d61   0x142  Code  Gb  stm32f4xx_rcc.o [1]
RCC_TIMCLKPresConfig    0x08079ecd    0x1e  Code  Gb  stm32f4xx_rcc.o [1]
RPDO1                   0x20006ff4    0x14  Data  Lc  ap_bservice_CANOpen.o [1]
RPDO1_rx_callback(hw_can_msg_t *)
                        0x0808acfd    0x44  Code  Gb  ap_bservice_CANOpen.o [1]
RPDO2                   0x200071b4     0x8  Data  Lc  ap_bservice_CANOpen.o [1]
RPDO2_rx_callback(hw_can_msg_t *)
                        0x0808ad41     0xc  Code  Gb  ap_bservice_CANOpen.o [1]
RTC_Bcd2ToByte          0x08080441    0x18  Code  Lc  stm32f4xx_rtc.o [1]
RTC_ByteToBcd2          0x08080429    0x18  Code  Lc  stm32f4xx_rtc.o [1]
RTC_EnterInitMode       0x0807fff7    0x56  Code  Gb  stm32f4xx_rtc.o [1]
RTC_ExitInitMode        0x0808004d    0x12  Code  Gb  stm32f4xx_rtc.o [1]
RTC_GetTime             0x080802a3    0x6a  Code  Gb  stm32f4xx_rtc.o [1]
RTC_Init                0x0807ff3d    0xac  Code  Gb  stm32f4xx_rtc.o [1]
RTC_ReadBackupRegister  0x080803a9    0x76  Code  Gb  stm32f4xx_rtc.o [1]
RTC_SetTime             0x080800c5   0x1cc  Code  Gb  stm32f4xx_rtc.o [1]
RTC_StructInit          0x0807ffe9     0xe  Code  Gb  stm32f4xx_rtc.o [1]
RTC_TimeStructInit      0x08080291    0x12  Code  Gb  stm32f4xx_rtc.o [1]
RTC_WaitForSynchro      0x0808005f    0x66  Code  Gb  stm32f4xx_rtc.o [1]
RTC_WriteBackupRegister
                        0x08080331    0x78  Code  Gb  stm32f4xx_rtc.o [1]
Region$$Table$$Base     0x08090ec0           --   Gb  - Linker created -
Region$$Table$$Limit    0x08090ee4           --   Gb  - Linker created -
RequestG55Passwords()   0x0808dadd    0x54  Code  Gb  ap_keylessentry.o [1]
RestoreDefaultPassword(unsigned char)
                        0x08055afd    0xd6  Code  Gb  ap_eeprom.o [1]
RestoreDefaultUser(unsigned char)
                        0x08055bd3   0x102  Code  Gb  ap_eeprom.o [1]
SDATA$$Base             0x10000000           --   Gb  - Linker created -
SDATA$$Length           0x00000100           --   Gb  - Linker created -
SDATA$$Limit            0x10000100           --   Gb  - Linker created -
SHT$$INIT_ARRAY$$Base   0x08091248           --   Gb  - Linker created -
SHT$$INIT_ARRAY$$Limit  0x0809124c           --   Gb  - Linker created -
SHT$$PREINIT_ARRAY$$Base
                        0x08091248           --   Gb  - Linker created -
SHT$$PREINIT_ARRAY$$Limit
                        0x08091248           --   Gb  - Linker created -
SMVCU_CAN4TX            0x20006d78    0x28  Data  Gb  ap_engine.o [1]
SOFT_TP_msg             0x20007178     0xc  Data  Gb  ap_can.o [1]
SOFT_TP_tx              0x2000587c    0x64  Data  Gb  ap_can.o [1]
SOFTmsgData             0x200058e0    0x64  Data  Gb  ap_can.o [1]
STAuxOverrideDebounce   0x200075af     0x1  Data  Gb  ap_can.o [1]
STAuxOverridePressed    0x200075b0     0x1  Data  Gb  ap_can.o [1]
SecondaryControls_rx_callback(hw_can_msg_t *)
                        0x08059b4f    0x4a  Code  Gb  ap_can.o [1]
SendDeluxeWarning()     0x080871c3   0x184  Code  Gb  ap_deluxeG5.o [1]
SendMsg_03_Now          0x08052085     0xa  Code  Gb  SendMsgNow.o [1]
SendMsg_BICSControl_Now
                        0x0805208f     0xa  Code  Gb  SendMsgNow.o [1]
SendMsg_DPM2_Now        0x0805217f    0x8c  Code  Gb  SendMsgNow.o [1]
SendMsg_Derate_Now      0x080520ad    0xc2  Code  Gb  SendMsgNow.o [1]
SendMsg_SOFTRequest_Now
                        0x0805216f    0x10  Code  Gb  SendMsgNow.o [1]
SendVINMsg()            0x0805a529    0x6a  Code  Gb  ap_can.o [1]
SendWarningHistory()    0x080874dd   0x6a6  Code  Gb  ap_deluxeG5.o [1]
SendWarningHistory()::activeCount
                        0x200075ca     0x1  Data  Lc  ap_deluxeG5.o [1]
SendWarningHistory()::error_Count
                        0x200075c9     0x1  Data  Lc  ap_deluxeG5.o [1]
SendWarningHistory()::error_CountECU
                        0x200075cc     0x1  Data  Lc  ap_deluxeG5.o [1]
SendWarningHistory()::tempStop
                        0x200075c8     0x1  Data  Lc  ap_deluxeG5.o [1]
SendWarningHistory()::tempStopECU
                        0x200075cb     0x1  Data  Lc  ap_deluxeG5.o [1]
Send_Request_Message(unsigned short, unsigned char, unsigned char)
                        0x08059d41    0x6e  Code  Gb  ap_can.o [1]
ServiceData_rx_callback(hw_can_msg_t *)
                        0x08085fb5   0x234  Code  Gb  ap_deluxeG5.o [1]
SetFaultMessage(FaultMessageStruct *, hw_can_msg_t *)
                        0x0808b6b5    0x40  Code  Gb  ap_bservice_CANStd.o [1]
SetServiceClock()       0x080773bf    0x74  Code  Gb  ap_subs.o [1]
SetSysClock             0x0807f69d    0xce  Code  Lc  system_stm32f4xx.o [1]
SetUserIdle(unsigned char, unsigned int)
                        0x08055653    0x32  Code  Gb  ap_eeprom.o [1]
SetUserJob(unsigned char, unsigned int)
                        0x080555f5    0x32  Code  Gb  ap_eeprom.o [1]
Shutdown_RX             0x20006678    0x30  Data  Gb  ap_engine.o [1]
Shutdown_rx_callback(hw_can_msg_t *)
                        0x0808bde7    0x18  Code  Gb  ap_engine.o [1]
SysTick_Config          0x0807bd85    0x32  Code  Lc  stf4_bsp_clock.o [1]
SystemInit              0x0807f605    0x56  Code  Gb  system_stm32f4xx.o [1]
TFAC_TX                 0x200067d8    0x28  Data  Gb  ap_can.o [1]
TI1_Config              0x08082469    0x3c  Code  Lc  stm32f4xx_tim.o [1]
TI2_Config              0x080824a5    0x52  Code  Lc  stm32f4xx_tim.o [1]
TI3_Config              0x080824f7    0x52  Code  Lc  stm32f4xx_tim.o [1]
TI4_Config              0x08082549    0x52  Code  Lc  stm32f4xx_tim.o [1]
TIM_ARRPreloadConfig    0x08081435    0xb8  Code  Gb  stm32f4xx_tim.o [1]
TIM_CtrlPWMOutputs      0x08082311    0x5e  Code  Gb  stm32f4xx_tim.o [1]
TIM_ICInit              0x08081eb9   0x1de  Code  Gb  stm32f4xx_tim.o [1]
TIM_ICStructInit        0x080820a9    0x16  Code  Gb  stm32f4xx_tim.o [1]
TIM_ITConfig            0x08082375    0xb8  Code  Gb  stm32f4xx_tim.o [1]
TIM_OC1Init             0x080814f1   0x1c8  Code  Gb  stm32f4xx_tim.o [1]
TIM_OC1PreloadConfig    0x08081cb9    0x9a  Code  Gb  stm32f4xx_tim.o [1]
TIM_OC2Init             0x080816b9   0x1aa  Code  Gb  stm32f4xx_tim.o [1]
TIM_OC2PreloadConfig    0x08081d53    0x70  Code  Gb  stm32f4xx_tim.o [1]
TIM_OC3Init             0x08081863   0x18e  Code  Gb  stm32f4xx_tim.o [1]
TIM_OC3PreloadConfig    0x08081dc3    0x62  Code  Gb  stm32f4xx_tim.o [1]
TIM_OC4Init             0x080819f5   0x124  Code  Gb  stm32f4xx_tim.o [1]
TIM_OC4PreloadConfig    0x08081e25    0x64  Code  Gb  stm32f4xx_tim.o [1]
TIM_OCInit              0x0807dbc9    0x46  Code  Lc  stf4_bsp_pwm.o [1]
TIM_OCPreloadConfig     0x0807dc55    0x4e  Code  Lc  stf4_bsp_pwm.o [1]
TIM_OCStructInit        0x08081b45    0x22  Code  Gb  stm32f4xx_tim.o [1]
TIM_SetCompare          0x0807dc0f    0x46  Code  Lc  stf4_bsp_pwm.o [1]
TIM_SetCompare1         0x08081b67    0x70  Code  Gb  stm32f4xx_tim.o [1]
TIM_SetCompare2         0x08081bd7    0x52  Code  Gb  stm32f4xx_tim.o [1]
TIM_SetCompare3         0x08081c31    0x42  Code  Gb  stm32f4xx_tim.o [1]
TIM_SetCompare4         0x08081c73    0x42  Code  Gb  stm32f4xx_tim.o [1]
TIM_SetIC1Prescaler     0x080820d5    0xae  Code  Gb  stm32f4xx_tim.o [1]
TIM_SetIC2Prescaler     0x08082183    0x90  Code  Gb  stm32f4xx_tim.o [1]
TIM_SetIC3Prescaler     0x08082213    0x7e  Code  Gb  stm32f4xx_tim.o [1]
TIM_SetIC4Prescaler     0x08082291    0x80  Code  Gb  stm32f4xx_tim.o [1]
TPDO1                   0x20007148     0xc  Data  Lc  ap_bservice_CANOpen.o [1]
TPDO2                   0x20007284     0x4  Data  Lc  ap_bservice_CANOpen.o [1]
USART_Cmd               0x0807fb29    0x8c  Code  Gb  stm32f4xx_usart.o [1]
USART_DeInit            0x0807f7bd   0x136  Code  Gb  stm32f4xx_usart.o [1]
USART_GetITStatus       0x0807fd59   0x15e  Code  Gb  stm32f4xx_usart.o [1]
USART_ITConfig          0x0807fbe1   0x160  Code  Gb  stm32f4xx_usart.o [1]
USART_Init              0x0807f8f3   0x21a  Code  Gb  stm32f4xx_usart.o [1]
USART_StructInit        0x0807fb0d    0x1c  Code  Gb  stm32f4xx_usart.o [1]
UpdateEEVariables(unsigned char)
                        0x08055ee7    0x7e  Code  Gb  ap_eeprom.o [1]
UpdateEvent(unsigned char)
                        0x080571e1   0x318  Code  Gb  ap_eeprom.o [1]
UpdateHourMeter()       0x080769e1    0xa2  Code  Gb  ap_subs.o [1]
UpdateIdleTime()        0x08076ccb   0x146  Code  Gb  ap_subs.o [1]
UpdateLCDBatteryVoltage()
                        0x08077021    0x62  Code  Gb  ap_subs.o [1]
UpdateLCDECT()          0x080770df    0x92  Code  Gb  ap_subs.o [1]
UpdateLCDEOP()          0x08077083    0x5c  Code  Gb  ap_subs.o [1]
UpdateLCDEngineRPM()    0x08076f6f    0xb2  Code  Gb  ap_subs.o [1]
UpdateLCDErrorCodes()   0x08077cfd   0x8f4  Code  Gb  ap_bservice_CAN04.o [1]
UpdateLCDErrorCodes()::count_Scroll
                        0x200005e0     0x1  Data  Lc  ap_bservice_CAN04.o [1]
UpdateLCDErrorCodes()::errorCount
                        0x200075ab     0x1  Data  Lc  ap_bservice_CAN04.o [1]
UpdateLCDErrorCodes()::flag_GetNewWarning
                        0x200075ac     0x1  Data  Lc  ap_bservice_CAN04.o [1]
UpdateLCDErrorCodes()::number_fmi
                        0x2000713c     0xc  Data  Lc  ap_bservice_CAN04.o [1]
UpdateLCDErrorCodes()::number_str
                        0x20007130     0xc  Data  Lc  ap_bservice_CAN04.o [1]
UpdateLCDErrorCodes()::time_ScrollCount
                        0x20007454     0x2  Data  Lc  ap_bservice_CAN04.o [1]
UpdateLCDGlowPlugs()    0x08076f17    0x58  Code  Gb  ap_subs.o [1]
UpdateLCDHOT()          0x08077171    0x92  Code  Gb  ap_subs.o [1]
UpdateLCDHourMeter()    0x08076e11    0x78  Code  Gb  ap_subs.o [1]
UpdateLCDJobClock(unsigned char)
                        0x08076e89    0x8e  Code  Gb  ap_subs.o [1]
UpdateLCDServiceClock()
                        0x08077203   0x150  Code  Gb  ap_subs.o [1]
UpdateLCDVersion()      0x08077445    0x64  Code  Gb  ap_subs.o [1]
UpdateLCD_FlashCold()   0x080774c1    0x7c  Code  Gb  ap_subs.o [1]
UpdateLCD_FlashCold()::debounceCount
                        0x200074a8     0x2  Data  Lc  ap_subs.o [1]
UpdateLCD_FlashCold()::tempState
                        0x200075fb     0x1  Data  Lc  ap_subs.o [1]
UpdateLHPJobClocks()    0x08076c37    0x94  Code  Gb  ap_subs.o [1]
UpdateServiceClock()    0x08077353    0x6c  Code  Gb  ap_subs.o [1]
UpdateUserJobClock()    0x08076a83   0x1b4  Code  Gb  ap_subs.o [1]
UserData_rx_callback(hw_can_msg_t *)
                        0x08086cf5   0x340  Code  Gb  ap_deluxeG5.o [1]
UserName_rx_callback(hw_can_msg_t *)
                        0x08087359   0x112  Code  Gb  ap_deluxeG5.o [1]
VEP_CAN0_TX             0x200067b0    0x28  Data  Gb  ap_can.o [1]
VIN_TP_msg              0x20007184     0xc  Data  Gb  ap_can.o [1]
VIN_TP_tx               0x20005944    0x64  Data  Gb  ap_can.o [1]
VINmsgData              0x20007008    0x14  Data  Gb  ap_can.o [1]
VerifyNewPasswordG5()   0x08086709   0x5ca  Code  Gb  ap_deluxeG5.o [1]
ZEROS                   0x080792da     0x2  Data  Lc  ap_bservice.o [1]
[local to MX_Gtwy_Control_cpp]::rate_scheduler()
                        0x08052ba7    0x22  Code  Lc  MX_Gtwy_Control.o [1]
[local to ap_bservice_CAN04_cpp]::NumBeeps(unsigned char, unsigned char)
                        0x0807779b   0x32e  Code  Lc  ap_bservice_CAN04.o [1]
[local to ap_bservice_CAN04_cpp]::active_failure(unsigned char)
                        0x08077ac9    0x30  Code  Lc  ap_bservice_CAN04.o [1]
[local to ap_bservice_CAN04_cpp]::active_failure_extern(unsigned char)
                        0x08077af9    0x10  Code  Lc  ap_bservice_CAN04.o [1]
[local to ap_bservice_CAN04_cpp]::initialize_CAN04_rx()
                        0x080775ef    0x56  Code  Lc  ap_bservice_CAN04.o [1]
[local to ap_bservice_cpp]::bservice_dv_block_initialize()
                        0x08075baf    0x32  Code  Lc  ap_bservice.o [1]
[local to ap_bservice_cpp]::process_bservice_cmd(hw_can_msg_t const *, hw_can_msg_t *)
                        0x08075dd9   0x296  Code  Lc  ap_bservice.o [1]
[local to ap_bservice_cpp]::unpack_bservice_request(hw_can_msg_t *, unsigned char)
                        0x08075be1    0x6c  Code  Lc  ap_bservice.o [1]
[local to ap_bservice_cpp]::unpack_bservice_request_0(hw_can_msg_t *)
                        0x08075c4d     0xe  Code  Lc  ap_bservice.o [1]
[local to ap_bservice_cpp]::unpack_bservice_request_1(hw_can_msg_t *)
                        0x08075c5b     0xe  Code  Lc  ap_bservice.o [1]
[local to ap_bsp_cpp]::bsp_debug_init()
                        0x080759d3    0x14  Code  Lc  ap_bsp.o [1]
[local to ap_bsp_cpp]::bsp_debug_run()
                        0x08075a75    0x44  Code  Lc  ap_bsp.o [1]
[local to ap_bsp_cpp]::bsp_debug_testWD()
                        0x080759e7    0x52  Code  Lc  ap_bsp.o [1]
[local to ap_bsp_cpp]::bsp_initIO()
                        0x0807596f    0x64  Code  Lc  ap_bsp.o [1]
[local to ap_can_cpp]::SendSOFTMsg(unsigned char *, unsigned char)
                        0x0805a399   0x182  Code  Lc  ap_can.o [1]
[local to ap_can_cpp]::getAsciiSOFTApp(unsigned char *, unsigned char)
                        0x0805a163   0x126  Code  Lc  ap_can.o [1]
[local to ap_can_cpp]::getAsciiSOFTCD(unsigned char *, unsigned char)
                        0x0805a289    0xfa  Code  Lc  ap_can.o [1]
[local to ap_can_cpp]::getAsciiSOFTID(unsigned char *, unsigned char)
                        0x0805a0cd    0x96  Code  Lc  ap_can.o [1]
[local to ap_can_cpp]::initialize_AAI_CAN0_TX()
                        0x0805849d    0x40  Code  Lc  ap_can.o [1]
[local to ap_can_cpp]::initialize_AuxControlMode_tx()
                        0x08059c77    0x42  Code  Lc  ap_can.o [1]
[local to ap_can_cpp]::initialize_BJM2_Left_rx()
                        0x08059fe3    0x46  Code  Lc  ap_can.o [1]
[local to ap_can_cpp]::initialize_BJM2_Right_rx()
                        0x08059f75    0x46  Code  Lc  ap_can.o [1]
[local to ap_can_cpp]::initialize_CAN01_Secondary_rx()
                        0x08058531    0x54  Code  Lc  ap_can.o [1]
[local to ap_can_cpp]::initialize_CAN01_Throttle_rx()
                        0x080584dd    0x54  Code  Lc  ap_can.o [1]
[local to ap_can_cpp]::initialize_CAN01sTX()
                        0x08057bd7    0x42  Code  Lc  ap_can.o [1]
[local to ap_can_cpp]::initialize_CAN02sTX()
                        0x08057ca3    0x42  Code  Lc  ap_can.o [1]
[local to ap_can_cpp]::initialize_CAN03sTX()
                        0x0805864d    0x3e  Code  Lc  ap_can.o [1]
[local to ap_can_cpp]::initialize_CAN05sTX()
                        0x08057d37    0x42  Code  Lc  ap_can.o [1]
[local to ap_can_cpp]::initialize_CAN06sTX()
                        0x08057d9d    0x42  Code  Lc  ap_can.o [1]
[local to ap_can_cpp]::initialize_CAN20sTX()
                        0x08057f15    0x4a  Code  Lc  ap_can.o [1]
[local to ap_can_cpp]::initialize_CAN21extTX()
                        0x08057fed    0x4a  Code  Lc  ap_can.o [1]
[local to ap_can_cpp]::initialize_CAN21sTX()
                        0x08057fa3    0x4a  Code  Lc  ap_can.o [1]
[local to ap_can_cpp]::initialize_CAN_ACD_rx()
                        0x0805810f    0x46  Code  Lc  ap_can.o [1]
[local to ap_can_cpp]::initialize_CAN_ST_rx()
                        0x08057ea7    0x46  Code  Lc  ap_can.o [1]
[local to ap_can_cpp]::initialize_DD_CAN0_TX()
                        0x0805841d    0x42  Code  Lc  ap_can.o [1]
[local to ap_can_cpp]::initialize_DigDepthStatus_rx()
                        0x0805a04f    0x46  Code  Lc  ap_can.o [1]
[local to ap_can_cpp]::initialize_EEC1_CAN0_TX()
                        0x080581a7    0x42  Code  Lc  ap_can.o [1]
[local to ap_can_cpp]::initialize_EEC2_CAN0_TX()
                        0x080583c5    0x42  Code  Lc  ap_can.o [1]
[local to ap_can_cpp]::initialize_EFL_P1_CAN0_TX()
                        0x08058345    0x42  Code  Lc  ap_can.o [1]
[local to ap_can_cpp]::initialize_ET1_CAN0_TX()
                        0x08058291    0x42  Code  Lc  ap_can.o [1]
[local to ap_can_cpp]::initialize_HWJ1939AcknowledgeMsgInt_tx()
                        0x0805a615    0x34  Code  Lc  ap_can.o [1]
[local to ap_can_cpp]::initialize_HWJ1939BICSControl_tx()
                        0x08059f07    0x42  Code  Lc  ap_can.o [1]
[local to ap_can_cpp]::initialize_HWJ1939EngineHoursIntTX()
                        0x080587cd    0x3e  Code  Lc  ap_can.o [1]
[local to ap_can_cpp]::initialize_HWJ1939MachineConfigMsgInt_tx()
                        0x0805a6d5    0x34  Code  Lc  ap_can.o [1]
[local to ap_can_cpp]::initialize_HWJ1939RequestMsgInt_rx()
                        0x0805a9bd    0x48  Code  Lc  ap_can.o [1]
[local to ap_can_cpp]::initialize_HoursUpdatesRX_rx()
                        0x0805871d    0x46  Code  Lc  ap_can.o [1]
[local to ap_can_cpp]::initialize_HydControlSettings_rx()
                        0x08059cfb    0x46  Code  Lc  ap_can.o [1]
[local to ap_can_cpp]::initialize_LFE_CAN0_rx()
                        0x08059dcb    0x46  Code  Lc  ap_can.o [1]
[local to ap_can_cpp]::initialize_PanelButtonRX()
                        0x08058845    0x46  Code  Lc  ap_can.o [1]
[local to ap_can_cpp]::initialize_PanelButtonsTX()
                        0x08058c89    0x42  Code  Lc  ap_can.o [1]
[local to ap_can_cpp]::initialize_PanelGaugeTX()
                        0x08058dc1    0x42  Code  Lc  ap_can.o [1]
[local to ap_can_cpp]::initialize_PanelIORX()
                        0x08059e31    0x46  Code  Lc  ap_can.o [1]
[local to ap_can_cpp]::initialize_PanelLCDIconsTX()
                        0x08059961    0x42  Code  Lc  ap_can.o [1]
[local to ap_can_cpp]::initialize_PanelLCDTX()
                        0x08059719    0x3e  Code  Lc  ap_can.o [1]
[local to ap_can_cpp]::initialize_PanelTellTalesTX()
                        0x08058add    0x42  Code  Lc  ap_can.o [1]
[local to ap_can_cpp]::initialize_PrimaryControls_tx()
                        0x08059b0d    0x42  Code  Lc  ap_can.o [1]
[local to ap_can_cpp]::initialize_SecondaryControls_rx()
                        0x08059ba1    0x46  Code  Lc  ap_can.o [1]
[local to ap_can_cpp]::initialize_TFAC_tx()
                        0x08059a45    0x42  Code  Lc  ap_can.o [1]
[local to ap_can_cpp]::initialize_VEP_CAN0_TX()
                        0x08058215    0x42  Code  Lc  ap_can.o [1]
[local to ap_can_cpp]::update_AAI_TX(hw_can_msg_t *)
                        0x0805845f    0x3e  Code  Lc  ap_can.o [1]
[local to ap_cdata_cpp]::getCDSection(unsigned int)
                        0x0807dff1    0x42  Code  Lc  ap_cdata.o [1]
[local to ap_cpp]::ap_eeprom_task()
                        0x080841ad    0x14  Code  Lc  ap.o [1]
[local to ap_deluxeG55_cpp]::AuxStatusCheck()
                        0x0808d00d    0x82  Code  Lc  ap_deluxeG55.o [1]
[local to ap_deluxeG55_cpp]::JogShuttleRx_callback(hw_can_msg_t *)
                        0x0808cf9f    0x2a  Code  Lc  ap_deluxeG55.o [1]
[local to ap_deluxeG55_cpp]::initialize_AuxHydStatus_tx()
                        0x0808cf61    0x3e  Code  Lc  ap_deluxeG55.o [1]
[local to ap_deluxeG55_cpp]::initialize_DeluxeAuthenticationG55_rx()
                        0x0808cce5    0x46  Code  Lc  ap_deluxeG55.o [1]
[local to ap_deluxeG55_cpp]::initialize_DeluxeMainStatus_tx()
                        0x0808c6a3    0x42  Code  Lc  ap_deluxeG55.o [1]
[local to ap_deluxeG55_cpp]::initialize_DeluxeStatusG55_rx()
                        0x0808cb53    0x46  Code  Lc  ap_deluxeG55.o [1]
[local to ap_deluxeG55_cpp]::initialize_JogShuttleRx()
                        0x0808cfc9    0x3c  Code  Lc  ap_deluxeG55.o [1]
[local to ap_deluxeG55_cpp]::initialize_OperatorSettings_rx()
                        0x0808cbf1    0x46  Code  Lc  ap_deluxeG55.o [1]
[local to ap_deluxeG55_cpp]::initialize_VitalDataG55_tx()
                        0x0808ca97    0x42  Code  Lc  ap_deluxeG55.o [1]
[local to ap_deluxeG55_cpp]::sendChallenge()
                        0x0808cd9d    0xf6  Code  Lc  ap_deluxeG55.o [1]
[local to ap_deluxeG55_cpp]::sendChallengeResponse(unsigned int)
                        0x0808cd2b    0x72  Code  Lc  ap_deluxeG55.o [1]
[local to ap_deluxeG55_cpp]::update_AuxHydStatus_tx(hw_can_msg_t *)
                        0x0808ce93    0xce  Code  Lc  ap_deluxeG55.o [1]
[local to ap_deluxeG55_cpp]::update_DeluxeMainStatus_tx(hw_can_msg_t *)
                        0x0808c589   0x11a  Code  Lc  ap_deluxeG55.o [1]
[local to ap_deluxeG5_cpp]::initialize_DeluxeKeypad_rx()
                        0x08087d25    0x38  Code  Lc  ap_deluxeG5.o [1]
[local to ap_deluxeG5_cpp]::initialize_DeluxeProg_rx()
                        0x08087d6d    0x38  Code  Lc  ap_deluxeG5.o [1]
[local to ap_deluxeG5_cpp]::initialize_DeluxeStatus_rx()
                        0x08085209    0x46  Code  Lc  ap_deluxeG5.o [1]
[local to ap_deluxeG5_cpp]::initialize_JobClock_rx()
                        0x08085819    0x46  Code  Lc  ap_deluxeG5.o [1]
[local to ap_deluxeG5_cpp]::initialize_JobClock_tx()
                        0x08085975    0x42  Code  Lc  ap_deluxeG5.o [1]
[local to ap_deluxeG5_cpp]::initialize_MainStatus_tx()
                        0x0808545b    0x42  Code  Lc  ap_deluxeG5.o [1]
[local to ap_deluxeG5_cpp]::initialize_PwdData_rx()
                        0x08086665    0x46  Code  Lc  ap_deluxeG5.o [1]
[local to ap_deluxeG5_cpp]::initialize_ServiceData_rx()
                        0x080861ed    0x46  Code  Lc  ap_deluxeG5.o [1]
[local to ap_deluxeG5_cpp]::initialize_ServiceData_tx()
                        0x080862fd    0x42  Code  Lc  ap_deluxeG5.o [1]
[local to ap_deluxeG5_cpp]::initialize_UserData_rx()
                        0x08087049    0x46  Code  Lc  ap_deluxeG5.o [1]
[local to ap_deluxeG5_cpp]::initialize_UserInfo_tx()
                        0x08085b15    0x42  Code  Lc  ap_deluxeG5.o [1]
[local to ap_deluxeG5_cpp]::initialize_UserName_rx()
                        0x08087471    0x46  Code  Lc  ap_deluxeG5.o [1]
[local to ap_deluxeG5_cpp]::initialize_VitalData_tx()
                        0x08085f49    0x3e  Code  Lc  ap_deluxeG5.o [1]
[local to ap_dv_cpp]::ClearECUCodes()
                        0x0808a17f    0x70  Code  Lc  ap_dv.o [1]
[local to ap_dv_cpp]::ClearEvents()
                        0x0808a1ef    0x70  Code  Lc  ap_dv.o [1]
[local to ap_dv_cpp]::ClearServiceClock()
                        0x0808a25f    0x70  Code  Lc  ap_dv.o [1]
[local to ap_dv_cpp]::ClearServiceCodes()
                        0x0808a10f    0x70  Code  Lc  ap_dv.o [1]
[local to ap_dv_cpp]::SetHourMeter()
                        0x0808a2cf   0x110  Code  Lc  ap_dv.o [1]
[local to ap_eeprom_cpp]::RestoreDefaultEEVariables()
                        0x08055f65    0xec  Code  Lc  ap_eeprom.o [1]
[local to ap_eeprom_cpp]::RestoreDefaultEEVariables2()
                        0x08056051    0x2e  Code  Lc  ap_eeprom.o [1]
[local to ap_eeprom_cpp]::RestoreNewEEVariables()
                        0x0805607f    0x62  Code  Lc  ap_eeprom.o [1]
[local to ap_eeprom_cpp]::eeClearHourMeter(hourMeterRAM *)
                        0x080558e9   0x214  Code  Lc  ap_eeprom.o [1]
[local to ap_eeprom_cpp]::eeFindHourMeterBank(hourMeterRAM *, unsigned char)
                        0x080556cb    0x90  Code  Lc  ap_eeprom.o [1]
[local to ap_eeprom_cpp]::eeReadArray(unsigned short, unsigned char *, unsigned short, unsigned short)
                        0x08055685    0x46  Code  Lc  ap_eeprom.o [1]
[local to ap_eeprom_cpp]::eeRestoreMirror()
                        0x08056125   0x9f0  Code  Lc  ap_eeprom.o [1]
[local to ap_eeprom_cpp]::eeUpdateHourMeter(hourMeterRAM *)
                        0x0805575b   0x18e  Code  Lc  ap_eeprom.o [1]
[local to ap_eeprom_cpp]::eeUpdateMirrorEvents()
                        0x08055cd5   0x212  Code  Lc  ap_eeprom.o [1]
[local to ap_eeprom_cpp]::eeUpdateStatus()
                        0x08056b1d    0x68  Code  Lc  ap_eeprom.o [1]
[local to ap_engine_cpp]::EEC1_rx_callback(hw_can_msg_t *)
                        0x0808b9d9    0x4c  Code  Lc  ap_engine.o [1]
[local to ap_engine_cpp]::initialize_AAI_CAN4_TX()
                        0x0808b997    0x42  Code  Lc  ap_engine.o [1]
[local to ap_engine_cpp]::initialize_AMB_rx()
                        0x0808be9b    0x46  Code  Lc  ap_engine.o [1]
[local to ap_engine_cpp]::initialize_ActiveCodes_rx()
                        0x0808bff9    0x46  Code  Lc  ap_engine.o [1]
[local to ap_engine_cpp]::initialize_CCVS_CAN4_TX()
                        0x0808b917    0x42  Code  Lc  ap_engine.o [1]
[local to ap_engine_cpp]::initialize_DD_CAN4_TX()
                        0x0808b89b    0x42  Code  Lc  ap_engine.o [1]
[local to ap_engine_cpp]::initialize_EEC1_rx()
                        0x0808ba25    0x46  Code  Lc  ap_engine.o [1]
[local to ap_engine_cpp]::initialize_EEC2_CAN4_TX()
                        0x0808b76b    0x42  Code  Lc  ap_engine.o [1]
[local to ap_engine_cpp]::initialize_EFL_P1_rx()
                        0x0808bbef    0x46  Code  Lc  ap_engine.o [1]
[local to ap_engine_cpp]::initialize_ET1_rx()
                        0x0808bb39    0x46  Code  Lc  ap_engine.o [1]
[local to ap_engine_cpp]::initialize_HOURS_rx()
                        0x0808bda1    0x46  Code  Lc  ap_engine.o [1]
[local to ap_engine_cpp]::initialize_LFC_rx()
                        0x0808bcf9    0x46  Code  Lc  ap_engine.o [1]
[local to ap_engine_cpp]::initialize_LFE_CAN4_rx()
                        0x0808bc59    0x46  Code  Lc  ap_engine.o [1]
[local to ap_engine_cpp]::initialize_SMVCU_CAN4_TX()
                        0x0808b843    0x42  Code  Lc  ap_engine.o [1]
[local to ap_engine_cpp]::initialize_Shutdown_rx()
                        0x0808bdff    0x46  Code  Lc  ap_engine.o [1]
[local to ap_engine_cpp]::update_AAI_TX(hw_can_msg_t *)
                        0x0808b959    0x3e  Code  Lc  ap_engine.o [1]
[local to ap_gateway_cpp]::unpack_gateway_rx_mbox(hw_can_msg_t *, unsigned char)
                        0x08089d7b    0x4e  Code  Lc  ap_gateway.o [1]
[local to ap_gateway_cpp]::unpack_gateway_rx_mbox_0(hw_can_msg_t *)
                        0x08089dc9     0xe  Code  Lc  ap_gateway.o [1]
[local to ap_gateway_cpp]::unpack_gateway_rx_mbox_1(hw_can_msg_t *)
                        0x08089dd7     0xe  Code  Lc  ap_gateway.o [1]
[local to ap_keylessentry_cpp]::PasswordValidation(unsigned char *)
                        0x0808db31   0x106  Code  Lc  ap_keylessentry.o [1]
[local to ap_keylessentry_cpp]::initialize_DeluxePasswords_rx()
                        0x0808da97    0x46  Code  Lc  ap_keylessentry.o [1]
[local to ap_keylessentry_cpp]::initialize_KeylessEntry_rx()
                        0x0808d821    0x46  Code  Lc  ap_keylessentry.o [1]
[local to ap_keylessentry_cpp]::initialize_KeylessEntry_tx()
                        0x0808d8d5    0x4a  Code  Lc  ap_keylessentry.o [1]
[local to ap_keylessstart_cpp]::checkKeylessStale()
                        0x0808d33d    0xf2  Code  Lc  ap_keylessstart.o [1]
[local to ap_keylessstart_cpp]::initialize_Keypad_rx()
                        0x0808d45f    0x3e  Code  Lc  ap_keylessstart.o [1]
[local to ap_keylessstart_cpp]::initialize_Keypad_tx()
                        0x0808d543    0x32  Code  Lc  ap_keylessstart.o [1]
[local to ap_schd_cpp]::checkTask(ap_schd_task_s *, unsigned short, unsigned int)
                        0x080842d7    0x66  Code  Lc  ap_schd.o [1]
[local to ap_schd_cpp]::initStats(ap_schd_stats_s *)
                        0x0808433d    0x2e  Code  Lc  ap_schd.o [1]
[local to ap_schd_cpp]::updateStats(ap_schd_stats_s *, unsigned int, unsigned int)
                        0x0808436b    0x7a  Code  Lc  ap_schd.o [1]
[local to ap_subs_cpp]::str_len(unsigned char const *, unsigned char)
                        0x08076869    0x42  Code  Lc  ap_subs.o [1]
[local to hw_can_cpp]::frame2Msg(bsp_can_frame_s const *, hw_can_msg_t *)
                        0x08074eed    0x44  Code  Lc  hw_can.o [1]
[local to hw_can_cpp]::msg2Frame(hw_can_msg_t const *, bsp_can_frame_s *)
                        0x08074f31    0x36  Code  Lc  hw_can.o [1]
[local to hw_can_cpp]::processRxFrames(unsigned char)
                        0x08074e9f    0x32  Code  Lc  hw_can.o [1]
[local to hw_dio_cpp]::canTermUpdate()
                        0x080767af    0x28  Code  Lc  hw_dio.o [1]
[local to hw_dio_cpp]::dinUpdate()
                        0x08076377   0x174  Code  Lc  hw_dio.o [1]
[local to hw_dio_cpp]::doutUpdate()
                        0x080764eb   0x2c4  Code  Lc  hw_dio.o [1]
[local to hw_dio_cpp]::hw_din_SetValue(hw_din_ch_t, bool)
                        0x080767d7    0x4c  Code  Lc  hw_dio.o [1]
[local to hw_io_cpp]::readDirect(unsigned int, unsigned int, unsigned char *)
                        0x0807e613    0x78  Code  Lc  hw_io.o [1]
[local to hw_io_cpp]::readDirect_nvm1(unsigned int, unsigned int, unsigned int, unsigned char *)
                        0x0807e68b    0x2a  Code  Lc  hw_io.o [1]
[local to hw_io_cpp]::readDirect_nvm2(unsigned int, unsigned int, unsigned int, unsigned char *)
                        0x0807e6b5    0x28  Code  Lc  hw_io.o [1]
[local to hw_io_cpp]::readDirect_ram(unsigned int, unsigned int, unsigned int, unsigned char *)
                        0x0807e6ff    0x16  Code  Lc  hw_io.o [1]
[local to hw_io_cpp]::readDirect_rom(unsigned int, unsigned int, unsigned int, unsigned char *)
                        0x0807e6e9    0x16  Code  Lc  hw_io.o [1]
[local to hw_nvm_cpp]::eeprom_read(bsp_nvm_e, unsigned short, unsigned short, unsigned char *)
                        0x0807571f    0x4a  Code  Lc  hw_nvm.o [1]
[local to hw_nvm_cpp]::eeprom_write(bsp_nvm_e, unsigned char, unsigned short, unsigned char const *)
                        0x08075689    0x52  Code  Lc  hw_nvm.o [1]
[local to hw_nvm_cpp]::get_eeprom_address(hw_nvm_eeprom_section_t, unsigned short, unsigned short *, bsp_nvm_e *)
                        0x08075791    0x7c  Code  Lc  hw_nvm.o [1]
[local to hw_nvm_cpp]::nvmStatusConvert(bsp_nvm_status_e)
                        0x08075769    0x28  Code  Lc  hw_nvm.o [1]
[local to hw_nvm_cpp]::readFakeManuData(unsigned short, unsigned short, unsigned char *)
                        0x080756db    0x44  Code  Lc  hw_nvm.o [1]
[local to mod_Inputs_cpp]::MX_G_enter_internal_NORMAL_dote()
                        0x08040701    0xac  Code  Lc  mod_Inputs.o [1]
[local to mod_Inputs_cpp]::MX_G_enter_internal_NORMAL_ifwk()
                        0x080447e1    0xac  Code  Lc  mod_Inputs.o [1]
[local to mod_Inputs_cpp]::MX_Gtwy_C_enter_internal_NORMAL()
                        0x08040655    0xac  Code  Lc  mod_Inputs.o [1]
[local to mod_Inputs_cpp]::MX_Gtwy_Control_NORMAL()
                        0x08042633   0x78c  Code  Lc  mod_Inputs.o [1]
[local to mod_Inputs_cpp]::MX_Gtwy_Control_NORMAL_f3er()
                        0x0804e8b7   0xbc0  Code  Lc  mod_Inputs.o [1]
[local to mod_Inputs_cpp]::MX_Gtwy_Control_NORMAL_jbs1()
                        0x08049a99   0x788  Code  Lc  mod_Inputs.o [1]
[local to mod_Inputs_cpp]::MX_Gtwy_Control_SENSOR()
                        0x08045361   0xa5c  Code  Lc  mod_Inputs.o [1]
[local to mod_Inputs_cpp]::MX_Gtwy_Control_SENSOR_hjqv(unsigned short const *)
                        0x08046f15   0x848  Code  Lc  mod_Inputs.o [1]
[local to mod_Inputs_cpp]::MX_Gtwy_Control_Supply_OK(unsigned short const *, short const *)
                        0x08043b0d   0x6a6  Code  Lc  mod_Inputs.o [1]
[local to mod_Inputs_cpp]::MX_Gtwy_Control_Supply_OK_asxw(short const *)
                        0x0804c2e9   0x630  Code  Lc  mod_Inputs.o [1]
[local to mod_Inputs_cpp]::MX_Gtwy_Control_Valid()
                        0x0804b09d   0x688  Code  Lc  mod_Inputs.o [1]
[local to mod_Outputs_cpp]::MX_Gtwy_Control_AfterglowTime(unsigned short)
                        0x0806c5bd    0x70  Code  Lc  mod_Outputs.o [1]
[local to mod_Outputs_cpp]::MX_Gtwy_Control_Control(unsigned char *, unsigned char const *, unsigned short const *, unsigned char *)
                        0x0806f2d1   0x948  Code  Lc  mod_Outputs.o [1]
[local to mod_Outputs_cpp]::MX_Gtwy_Control_Depth_Check()
                        0x0806a111   0x724  Code  Lc  mod_Outputs.o [1]
[local to mod_Outputs_cpp]::MX_Gtwy_Control_FuelTiming()
                        0x0806b72f    0x38  Code  Lc  mod_Outputs.o [1]
[local to mod_Outputs_cpp]::MX_Gtwy_Control_Normal(unsigned char *, unsigned char *)
                        0x0806f0e9   0x168  Code  Lc  mod_Outputs.o [1]
[local to mod_Outputs_cpp]::MX_Gtwy_Control_PreheatTime(unsigned short)
                        0x0806c54d    0x70  Code  Lc  mod_Outputs.o [1]
[local to mod_Outputs_cpp]::MX_Gtwy_Control_PreheatWaitTime(unsigned short)
                        0x0806c62d    0x70  Code  Lc  mod_Outputs.o [1]
[local to mod_Outputs_cpp]::MX_Gtwy_Control_out_state(unsigned char, unsigned char, rtDW_dout_chk_MX_Gtwy_Control *, unsigned short, unsigned short)
                        0x0806b9c5    0x3a  Code  Lc  mod_Outputs.o [1]
[local to mod_Panel_cpp]::MX_Gtwy_C_enter_internal_ACTIVE()
                        0x080714c1   0x422  Code  Lc  mod_Panel.o [1]
[local to mod_Panel_cpp]::MX_Gtwy_Contro_JOB_CLOCK_RESET1()
                        0x08071a2f    0x50  Code  Lc  mod_Panel.o [1]
[local to mod_Panel_cpp]::MX_Gtwy_Contro_JOB_CLOCK_RESET2()
                        0x08071a7f    0x50  Code  Lc  mod_Panel.o [1]
[local to mod_Panel_cpp]::MX_Gtwy_Control_ACTIVE()
                        0x08071c31   0xadc  Code  Lc  mod_Panel.o [1]
[local to mod_Panel_cpp]::MX_Gtwy_Control_JOB_CLOCK_2()
                        0x080718f1   0x13e  Code  Lc  mod_Panel.o [1]
[local to mod_Panel_cpp]::MX_Gtwy_Control_SECONDARY_STATE(unsigned char const *)
                        0x08070e19   0x69c  Code  Lc  mod_Panel.o [1]
[local to mod_Panel_cpp]::MX_Gtwy_Control_SERVICE_CLOCK()
                        0x08071ad9   0x132  Code  Lc  mod_Panel.o [1]
[local to mod_System_cpp]::MX_G_DiverterFaultOverrideRight()
                        0x08061add    0x14  Code  Lc  mod_System.o [1]
[local to mod_System_cpp]::MX_G_enter_internal_Aux_Enabled()
                        0x080633d3    0x7c  Code  Lc  mod_System.o [1]
[local to mod_System_cpp]::MX_G_enter_internal_Offset_Left()
                        0x08061a5b    0x7e  Code  Lc  mod_System.o [1]
[local to mod_System_cpp]::MX_Gt_DiverterFaultOverrideLeft()
                        0x0806194d    0x14  Code  Lc  mod_System.o [1]
[local to mod_System_cpp]::MX_Gtwy_Con_ReminderOfLastState()
                        0x08064451   0x766  Code  Lc  mod_System.o [1]
[local to mod_System_cpp]::MX_Gtwy_Contr_Functional_f20sl3()
                        0x0805c0e7   0x558  Code  Lc  mod_System.o [1]
[local to mod_System_cpp]::MX_Gtwy_Contr_Offset_Right_jefh(unsigned char const *, unsigned char const *, unsigned char const *)
                        0x08061c65   0x59c  Code  Lc  mod_System.o [1]
[local to mod_System_cpp]::MX_Gtwy_Contro_Aux_Enable_State()
                        0x0805e795   0x7fc  Code  Lc  mod_System.o [1]
[local to mod_System_cpp]::MX_Gtwy_Contro_Functional_f20sl()
                        0x0805dde5   0x6c2  Code  Lc  mod_System.o [1]
[local to mod_System_cpp]::MX_Gtwy_Control_Aux_Enabled(unsigned char const *, unsigned char const *)
                        0x08062225   0x5d6  Code  Lc  mod_System.o [1]
[local to mod_System_cpp]::MX_Gtwy_Control_CHANGE()
                        0x080671b1   0xac6  Code  Lc  mod_System.o [1]
[local to mod_System_cpp]::MX_Gtwy_Control_Detent_State(unsigned char const *)
                        0x0805efc5   0x8f4  Code  Lc  mod_System.o [1]
[local to mod_System_cpp]::MX_Gtwy_Control_Enabled()
                        0x0805bb55   0x592  Code  Lc  mod_System.o [1]
[local to mod_System_cpp]::MX_Gtwy_Control_Functional()
                        0x0805c7c5   0x9de  Code  Lc  mod_System.o [1]
[local to mod_System_cpp]::MX_Gtwy_Control_Functional_f20s()
                        0x0805d2f1   0x648  Code  Lc  mod_System.o [1]
[local to mod_System_cpp]::MX_Gtwy_Control_KEYPAD()
                        0x08066e2d   0x350  Code  Lc  mod_System.o [1]
[local to mod_System_cpp]::MX_Gtwy_Control_Offset_Left(unsigned char const *)
                        0x08063965   0x3f4  Code  Lc  mod_System.o [1]
[local to mod_System_cpp]::MX_Gtwy_Control_Offset_Right(unsigned char const *, unsigned char const *, unsigned char const *)
                        0x08063501   0x458  Code  Lc  mod_System.o [1]
[local to mod_System_cpp]::MX_Gtwy_Control_OptionA(unsigned char const *)
                        0x08062dc1   0x612  Code  Lc  mod_System.o [1]
[local to mod_System_cpp]::MX_Gtwy_Control_OptionB(unsigned char const *, unsigned char const *, unsigned char const *)
                        0x08063d6d   0x6de  Code  Lc  mod_System.o [1]
[local to mod_System_cpp]::MX_Gtwy_Control_OptionC(unsigned char const *, unsigned char const *, unsigned char const *)
                        0x0806280d   0x5a0  Code  Lc  mod_System.o [1]
[local to mod_System_cpp]::MX_Gtwy_Control_SIRIUS2()
                        0x0805d951   0x2f4  Code  Lc  mod_System.o [1]
[local to mod_System_cpp]::MX_Gtwy_Control_SIRIUS2_HIFLOW()
                        0x0805e4ad   0x2b0  Code  Lc  mod_System.o [1]
[local to mod_System_cpp]::MX_Gtwy__enter_internal_Enabled()
                        0x0805c649   0x136  Code  Lc  mod_System.o [1]
[local to mod_System_cpp]::MX__enter_internal_Enabled_ls1c()
                        0x0805d1a3   0x11a  Code  Lc  mod_System.o [1]
[local to mod_System_cpp]::MX__enter_internal_Offset_Right()
                        0x08061baf    0x7e  Code  Lc  mod_System.o [1]
[local to mod_System_cpp]::MX_enter_internal_Enabled_ls1cz()
                        0x0805dc45   0x17c  Code  Lc  mod_System.o [1]
[local to mod_System_cpp]::enter_internal_Aux_Enabl_cso3up()
                        0x08061af5    0xba  Code  Lc  mod_System.o [1]
[local to mod_System_cpp]::enter_internal_Aux_Enable_cso3u()
                        0x0806196d    0xee  Code  Lc  mod_System.o [1]
[local to mod_System_cpp]::enter_internal_Aux_Enabled_cso3()
                        0x08063455    0x86  Code  Lc  mod_System.o [1]
_GenldFullNoMb          0x080830bd   0x274  Code  Lc  xprintffull_nomb.o [3]
_LdtobFullNoMb          0x08082c91   0x3fe  Code  Lc  xprintffull_nomb.o [3]
_LitobFullNoMb          0x08082b39   0x112  Code  Lc  xprintffull_nomb.o [3]
_PrintfFullNoMb         0x0808259d   0x1a4  Code  Gb  xprintffull_nomb.o [3]
_PutcharsFullNoMb       0x08083331    0x2e  Code  Lc  xprintffull_nomb.o [3]
_PutfldFullNoMb         0x080827c9   0x264  Code  Lc  xprintffull_nomb.o [3]
_PuttxtFullNoMb         0x08082a2d   0x10c  Code  Lc  xprintffull_nomb.o [3]
_Rand_idx               0x20005800     0x4  Data  Lc  rand.o [3]
_Rand_rv                0x20005780    0x80  Data  Lc  rand.o [3]
_Randinit               0x200005d4     0x1  Data  Gb  rand.o [3]
_Randseed               0x200005d8     0x4  Data  Gb  rand.o [3]
_SNProut                0x08074db3    0x1a  Code  Gb  xsnprout.o [3]
__aeabi_cdcmple         0x0808397d          Code  Gb  DblCmpLe.o [5]
__aeabi_cdrcmple        0x080839ad          Code  Gb  DblCmpGe.o [5]
__aeabi_d2iz            0x08083b19          Code  Gb  DblToS32.o [5]
__aeabi_d2uiz           0x08083ea5          Code  Gb  DblToU32.o [5]
__aeabi_ddiv            0x08083c5d          Code  Gb  DblDiv.o [5]
__aeabi_dmul            0x08083769          Code  Gb  DblMul.o [5]
__aeabi_dsub            0x08083b79          Code  Gb  DblSub.o [5]
__aeabi_i2d             0x08083b55          Code  Gb  S32ToDbl.o [5]
__aeabi_ldiv0           0x0808367d          Code  Gb  I64DivZer.o [6]
__aeabi_llsl            0x0808e5c9          Code  Gb  I64Shl.o [6]
__aeabi_memset          0x08074d45          Code  Gb  ABImemset.o [6]
__aeabi_ui2d            0x08083ecd          Code  Gb  U32ToDbl.o [5]
__aeabi_uldivmod        0x08081205          Code  Gb  I64DivMod.o [6]
__call_ctors            0x08090f85    0x18  Code  Gb  cppinit.o [3]
__checksum              0x080ffffc     0x4  Data  Gb  iar_stf4_cstartup.o [1]
__cmain                 0x0808365d          Code  Gb  cmain.o [6]
__cstack_end__ {Abs}    0x10010000          Data  Gb  command line/config [2]
__exit                  0x080841cd    0x14  Code  Gb  exit.o [7]
__iar_Fail_s            0x08083699    0x1c  Code  Gb  xfail_s.o [3]
__iar_Memchr            0x08083711          Code  Gb  memchr.o [6]
__iar_Memset            0x08074d45          Code  Gb  ABImemset.o [6]
__iar_Memset_word       0x08074d4d          Code  Gb  ABImemset.o [6]
__iar_Strchr            0x08083681          Code  Gb  strchr.o [6]
__iar_cstart_call_ctors
                        0x08090f65    0x20  Code  Gb  cmain_call_ctors.o [6]
__iar_dadd              0x08083b89          Code  Gb  DblSub.o [5]
__iar_data_init3        0x08083eed    0x28  Code  Gb  data_init.o [6]
__iar_debug_exceptions  0x080839ab     0x1  Data  Gb  unwind_debug.o [7]
__iar_dsub              0x08083f39          Code  Gb  DblAdd.o [5]
__iar_dsubStart         0x08083f4b          Code  Gb  DblAdd.o [5]
__iar_frexp             0x08083919          Code  Gb  frexp.o [5]
__iar_frexpl            0x08083919          Code  Gb  frexp.o [5]
__iar_init_vfp          0x08083639          Code  Gb  fpinit_M.o [5]
__iar_ldexp64           0x080839dd          Code  Gb  ldexp.o [5]
__iar_lz77_init_single3
                        0x0805796b    0x7a  Code  Gb  lz77_init_single.o [6]
__iar_program_start     0x0807f7b1          Code  Gb  cstartup_M.o [6]
__iar_scalbln64         0x080839dd          Code  Gb  ldexp.o [5]
__iar_scalbn64          0x080839dd          Code  Gb  ldexp.o [5]
__iar_softfp___iar_frexp64
                        0x0808390d          Code  Gb  frexp.o [5]
__iar_softfp_frexp      0x0808390d          Code  Gb  frexp.o [5]
__iar_softfp_frexpl     0x0808390d          Code  Gb  frexp.o [5]
__iar_systems$$module {Abs}
                        0x00000001          Data  Gb  command line/config [2]
__iar_tls$$INIT_ARRAY$$Base
                        0x0809124c           --   Gb  - Linker created -
__iar_tls$$INIT_ARRAY$$Limit
                        0x0809124c           --   Gb  - Linker created -
__iar_unaligned_memcpy  0x08075add          Code  Gb  ABImemcpy_unaligned.o [6]
__iar_unaligned_memcpy4
                        0x08075afd          Code  Gb  ABImemcpy_unaligned.o [6]
__iar_unaligned_memcpy8
                        0x08075afd          Code  Gb  ABImemcpy_unaligned.o [6]
__iar_zero_init3        0x08090c41    0x40  Code  Gb  zero_init3.o [6]
__low_level_init        0x08083ee7     0x4  Code  Gb  low_level_init.o [3]
__sti__routine          0x0808e211     0xa  Code  Lc  cancipher.o [1]
__vector_table          0x08040000    0x40  Data  Gb  iar_stf4_cstartup.o [1]
_call_main              0x08083669          Code  Gb  cmain.o [6]
_exit                   0x080841c1          Code  Gb  cexit.o [6]
_main                   0x08083677          Code  Gb  cmain.o [6]
abort                   0x08083f31     0x6  Code  Gb  abort.o [3]
activeCodeIndex         0x200075b8     0x1  Data  Gb  ap_can.o [1]
activeCodes_table       0x0808f7b4   0x360  Data  Lc  ap_dv.o [1]
actualData              0x200071d4     0x8  Data  Lc  ap_bservice_CANStd.o [1]
actualDataMsg           0x20005ef8    0x30  Data  Gb  ap_bservice_CANStd.o [1]
actualData_rx_callback(hw_can_msg_t *)
                        0x0808b50d    0x36  Code  Gb  ap_bservice_CANStd.o [1]
actualHourMeter         0x200073e4     0x4  Data  Gb  global.o [1]
actualHourMeterCopy     0x200073c4     0x4  Data  Gb  ap_subs.o [1]
actual_challenge_response
                        0x200073ac     0x4  Data  Lc  ap_deluxeG55.o [1]
adc1_dma_irqHandler     0x0807ceb9     0xa  Code  Lc  stf4_bsp_adc.o [1]
adc2_dma_irqHandler     0x0807cec3     0xa  Code  Lc  stf4_bsp_adc.o [1]
adc3_dma_irqHandler     0x0807cecd     0xa  Code  Lc  stf4_bsp_adc.o [1]
adcCh_config            0x0808fb14   0x210  Data  Lc  stf4_bsp_adc.o [1]
adcMux_config           0x08090f24    0x20  Data  Lc  stf4_bsp_adc.o [1]
adc_config              0x08090ad4    0x54  Data  Lc  stf4_bsp_adc.o [1]
adc_data                0x200033f8   0x3a8  Data  Lc  stf4_bsp_adc.o [1]
addActualDataMsg()      0x0808b395    0x2c  Code  Gb  ap_bservice_CANStd.o [1]
addCapacityDataMsg()    0x0808b419    0x2c  Code  Gb  ap_bservice_CANStd.o [1]
addControlAnswerMsg()   0x0808b471    0x2c  Code  Gb  ap_bservice_CANStd.o [1]
addEnergyDataMsg()      0x0808b445    0x2c  Code  Gb  ap_bservice_CANStd.o [1]
addFailureErrorMsg()    0x0808b33d    0x2c  Code  Gb  ap_bservice_CANStd.o [1]
addFatalErrorMsg()      0x0808b311    0x2c  Code  Gb  ap_bservice_CANStd.o [1]
addGUARDMsg(unsigned char)
                        0x0808acbb    0x40  Code  Gb  ap_bservice_CANOpen.o [1]
addLimitDataMsg()       0x0808b3c1    0x2c  Code  Gb  ap_bservice_CANStd.o [1]
addMsgHandler(hw_can_rxmsg *)
                        0x0808b229     0xe  Code  Gb  ap_bservice_CANOpen.o [1]
addPowerDataMsg()       0x0808b3ed    0x2c  Code  Gb  ap_bservice_CANStd.o [1]
addRPDO1Msg(unsigned char)
                        0x0808ac37    0x42  Code  Gb  ap_bservice_CANOpen.o [1]
addRPDO2Msg(unsigned char)
                        0x0808ac79    0x42  Code  Gb  ap_bservice_CANOpen.o [1]
addWarningErrorMsg()    0x0808b369    0x2c  Code  Gb  ap_bservice_CANStd.o [1]
adin_EOP                0x200074cc     0x2  Data  Gb  global.o [1]
adin_HOT                0x200074ca     0x2  Data  Gb  global.o [1]
adin_LoadSense          0x200074ce     0x2  Data  Gb  global.o [1]
adin_TravelPressureSwitch
                        0x200074d0     0x2  Data  Gb  global.o [1]
afbk_AuxBase            0x200074de     0x2  Data  Gb  global.o [1]
afbk_AuxRod             0x200074d6     0x2  Data  Gb  global.o [1]
afbk_Diverter           0x200074e4     0x2  Data  Gb  global.o [1]
afbk_DumpValve          0x200074e0     0x2  Data  Gb  global.o [1]
afbk_FuelSec            0x200074d8     0x2  Data  Gb  global.o [1]
afbk_HydBypass          0x200074e2     0x2  Data  Gb  global.o [1]
afbk_HydEnable          0x200074d2     0x2  Data  Gb  global.o [1]
afbk_OffsetBase         0x200074dc     0x2  Data  Gb  global.o [1]
afbk_OffsetRod          0x200074d4     0x2  Data  Gb  global.o [1]
afbk_TwoSpeed           0x200074da     0x2  Data  Gb  global.o [1]
ain_Aux2FlowControl     0x200074c8     0x2  Data  Gb  global.o [1]
ain_AuxPot              0x200074c0     0x2  Data  Gb  global.o [1]
ain_Console             0x200074b0     0x2  Data  Gb  global.o [1]
ain_ECT                 0x200074bc     0x2  Data  Gb  global.o [1]
ain_FuelLevel           0x200074be     0x2  Data  Gb  global.o [1]
ain_LoadMoment          0x200074c4     0x2  Data  Gb  global.o [1]
ain_OffsetPot           0x200074b6     0x2  Data  Gb  global.o [1]
ain_PrecisionReference  0x200074c2     0x2  Data  Gb  global.o [1]
ain_SensorSupply1       0x200074b2     0x2  Data  Gb  global.o [1]
ain_SensorSupply2       0x200074b4     0x2  Data  Gb  global.o [1]
ain_SwitchedPower       0x200074ba     0x2  Data  Gb  global.o [1]
ain_ThrottlePrimary     0x200074c6     0x2  Data  Gb  global.o [1]
ain_VBattery            0x200074b8     0x2  Data  Gb  global.o [1]
ap_DeluxeG55_initialize()
                        0x0808d1d1    0x58  Code  Gb  ap_deluxeG55.o [1]
ap_DeluxeG55_update()   0x0808d0c9    0xf6  Code  Gb  ap_deluxeG55.o [1]
ap_DeluxeG55_update()::challenge_interval
                        0x200005de     0x2  Data  Lc  ap_deluxeG55.o [1]
ap_DeluxeG55_update()::challenge_timer
                        0x2000746e     0x2  Data  Lc  ap_deluxeG55.o [1]
ap_DeluxeG55_update()::response_timer
                        0x2000746c     0x2  Data  Lc  ap_deluxeG55.o [1]
ap_DeluxeG5_initialize()
                        0x08087dad    0xbc  Code  Gb  ap_deluxeG5.o [1]
ap_ECU_initialize()     0x0808c391    0xd6  Code  Gb  ap_engine.o [1]
ap_ECU_update()         0x0808c2e9    0x7e  Code  Gb  ap_engine.o [1]
ap_ECU_update()::delay_ECUDM1
                        0x20007484     0x2  Data  Lc  ap_engine.o [1]
ap_bservice_CAN04_initialize(unsigned short *, unsigned char)
                        0x08077645   0x156  Code  Gb  ap_bservice_CAN04.o [1]
ap_bservice_CAN04_update()
                        0x08077b69   0x162  Code  Gb  ap_bservice_CAN04.o [1]
ap_bservice_CAN04_update()::i
                        0x200075aa     0x1  Data  Lc  ap_bservice_CAN04.o [1]
ap_bservice_initialize()
                        0x08075c69   0x12e  Code  Gb  ap_bservice.o [1]
ap_bservice_pending_reset
                        0x200075a5     0x1  Data  Gb  ap_bservice.o [1]
ap_bservice_pending_reset_countdown
                        0x200075a6     0x1  Data  Gb  ap_bservice.o [1]
ap_bservice_update()    0x08075d97    0x42  Code  Gb  ap_bservice.o [1]
ap_can_initialize()     0x0805ac2d   0x17e  Code  Gb  ap_can.o [1]
ap_can_update()         0x0805aa65   0x1ac  Code  Gb  ap_can.o [1]
ap_cdata_init()         0x0807dca5   0x34c  Code  Gb  ap_cdata.o [1]
ap_gateway_initialize()
                        0x08089de5    0x9c  Code  Gb  ap_gateway.o [1]
ap_gateway_routes       0x200073bc     0x4  Data  Gb  ap_gateway.o [1]
ap_gateway_update()     0x08089ead     0x2  Code  Gb  ap_gateway.o [1]
ap_hwt_initialize()     0x0808ea73    0xa0  Code  Gb  ap_hwt.o [1]
ap_hwt_update()         0x0808eb79     0x2  Code  Gb  ap_hwt.o [1]
ap_init()               0x080840a1    0xd8  Code  Gb  ap.o [1]
ap_keylessEntry_Update()
                        0x0808e097    0x64  Code  Gb  ap_keylessentry.o [1]
ap_keylessEntry_Update()::prev_SwPowerRelay
                        0x200075eb     0x1  Data  Lc  ap_keylessentry.o [1]
ap_keylessEntry_Update()::user_defined
                        0x200075ea     0x1  Data  Lc  ap_keylessentry.o [1]
ap_keylessentry_initialize()
                        0x0808e0fb    0x60  Code  Gb  ap_keylessentry.o [1]
ap_keylessstart_Update()
                        0x0808d575   0x1f6  Code  Gb  ap_keylessstart.o [1]
ap_keylessstart_initialize()
                        0x0808d76b    0x1a  Code  Gb  ap_keylessstart.o [1]
ap_main_initialize()    0x08088687   0x240  Code  Gb  ap_main.o [1]
ap_main_update()        0x08088cf9   0xd58  Code  Gb  ap_main.o [1]
ap_run()                0x08084179     0xa  Code  Gb  ap.o [1]
ap_schd_init(ap_schd_s *, ap_schd_stats_s *)
                        0x080841e1    0x2a  Code  Gb  ap_schd.o [1]
ap_schd_initTasks(ap_schd_s *)
                        0x08084243    0x36  Code  Gb  ap_schd.o [1]
ap_schd_regTask(ap_schd_s *, ap_schd_task_s *, ap_schd_taskConfig_s const *, ap_schd_stats_s *)
                        0x0808420b    0x38  Code  Gb  ap_schd.o [1]
ap_schd_run(ap_schd_s *)
                        0x08084279    0x5e  Code  Gb  ap_schd.o [1]
ap_smode                0x20007657     0x1  Data  Gb  hw_mcu.o [1]
ap_task                 0x20005cc8    0x40  Data  Lc  ap.o [1]
ap_taskConfig           0x20005d78    0x30  Data  Lc  ap.o [1]
ap_taskStats            0x2000551c    0xa0  Data  Lc  ap.o [1]
ap_tasks                0x08090cb4    0x30  Data  Gb  ap_tasks.o [1]
assert_failed           0x080751a3    0x2a  Code  Gb  stf4_bsp_mcu.o [1]
assert_failed::assertFails
                        0x2000742c     0x4  Data  Lc  stf4_bsp_mcu.o [1]
authDisplay             0x200075cf     0x1  Data  Lc  ap_deluxeG55.o [1]
authMain                0x200075ce     0x1  Data  Lc  ap_deluxeG55.o [1]
auth_DeluxeG55          0x20007647     0x1  Data  Gb  global.o [1]
aux_DebounceButton      0x200076cd     0x1  Data  Gb  MX_Gtwy_Control.o [1]
aux_DetentHold          0x200076ce     0x1  Data  Gb  MX_Gtwy_Control.o [1]
aux_Flow                0x20007675     0x1  Data  Gb  MX_Gtwy_Control.o [1]
aux_Inhibit             0x200076d8     0x1  Data  Gb  MX_Gtwy_Control.o [1]
bar_LoadMoment          0x20007544     0x2  Data  Gb  MX_Gtwy_Control.o [1]
bar_LoadSense           0x20007576     0x2  Data  Gb  MX_Gtwy_Control.o [1]
bb_smode                0x20007656     0x1  Data  Gb  hw_mcu.o [1]
bb_status               0x200075a4     0x1  Data  Gb  ap_bservice.o [1]
bservProg_customerID    0x200005e8     0x1  Data  Gb  hw_mcu.o [1]
bservProg_maxDataSize   0x200005e9     0x1  Data  Gb  hw_mcu.o [1]
bservProg_options       0x200005e7     0x1  Data  Gb  hw_mcu.o [1]
bservProg_protocolID    0x200005e6     0x1  Data  Gb  hw_mcu.o [1]
bservice_dv_block       0x20006e18    0x20  Data  Gb  ap_bservice.o [1]
bservice_dv_read_byte(unsigned short)
                        0x08075b55    0x2a  Code  Gb  ap_bservice.o [1]
bservice_dv_read_word(unsigned short)
                        0x08075b7f    0x30  Code  Gb  ap_bservice.o [1]
bservice_dv_table       0x08090bc0    0x40  Data  Lc  ap_bservice.o [1]
bservice_prog_mode      0x200075ae     0x1  Data  Gb  ap_bservice_prog.o [1]
bservice_prog_mode_t::Active() const
                        0x0807e341    0x10  Code  Gb  ap_bservice.o [1]
bservice_prog_mode_t::Clear()
                        0x0807e33b     0x6  Code  Gb  ap_bservice.o [1]
bservice_prog_mode_t::Set()
                        0x0807e335     0x6  Code  Gb  ap_bservice.o [1]
bservice_seed           0x20007466     0x2  Data  Gb  ap_bservice_prog.o [1]
bspCANMap               0x08083696     0x2  Data  Lc  hw_can.o [1]
bsp_adcEnable           0x08090e0c    0x24  Data  Lc  ap_bsp.o [1]
bsp_adc_GetValue        0x0807c779   0x2a4  Code  Gb  stf4_bsp_adc.o [1]
bsp_adc_init            0x0807c6ed    0x18  Code  Gb  stf4_bsp_adc.o [1]
bsp_adc_initCh          0x0807c705    0x74  Code  Gb  stf4_bsp_adc.o [1]
bsp_can_init            0x080796f9    0x7c  Code  Gb  stf4_bsp_can.o [1]
bsp_can_rxFrame         0x080797ef    0x32  Code  Gb  stf4_bsp_can.o [1]
bsp_can_txBufferNotFull
                        0x08079775    0x2a  Code  Gb  stf4_bsp_can.o [1]
bsp_can_txFrame         0x0807979f    0x50  Code  Gb  stf4_bsp_can.o [1]
bsp_clock_init          0x0807be0f    0x34  Code  Gb  stf4_bsp_clock.o [1]
bsp_clock_ms            0x0807be49     0x6  Code  Gb  stf4_bsp_clock.o [1]
bsp_clock_s             0x0807be43     0x6  Code  Gb  stf4_bsp_clock.o [1]
bsp_clock_us            0x0807be4f    0x24  Code  Gb  stf4_bsp_clock.o [1]
bsp_com_init            0x0807bef3     0x2  Code  Gb  stf4_bsp_com.o [1]
bsp_com_initCh          0x0807bef5    0x9c  Code  Gb  stf4_bsp_com.o [1]
bsp_com_read            0x0807bff5    0x48  Code  Gb  stf4_bsp_com.o [1]
bsp_com_write           0x0807bf91    0x64  Code  Gb  stf4_bsp_com.o [1]
bsp_debug_printHeader   0x080758f5    0x3a  Code  Gb  ap_bsp.o [1]
bsp_debug_printf        0x0807592f    0x40  Code  Gb  ap_bsp.o [1]
bsp_dinEnable           0x08090f04    0x20  Data  Lc  ap_bsp.o [1]
bsp_din_GetValue        0x0807d083    0x3a  Code  Gb  stf4_bsp_din.o [1]
bsp_din_init            0x0807cff9    0x14  Code  Gb  stf4_bsp_din.o [1]
bsp_din_initCh          0x0807d027    0x5c  Code  Gb  stf4_bsp_din.o [1]
bsp_din_sample          0x0807d00d    0x1a  Code  Gb  stf4_bsp_din.o [1]
bsp_doutEnable          0x08090d70    0x2c  Data  Lc  ap_bsp.o [1]
bsp_dout_GetValue       0x0807d1c3    0x52  Code  Gb  stf4_bsp_dout.o [1]
bsp_dout_SetValue       0x0807d215    0x70  Code  Gb  stf4_bsp_dout.o [1]
bsp_dout_getWettingCurrentEnable
                        0x0807d30d    0x5c  Code  Gb  stf4_bsp_dout.o [1]
bsp_dout_init           0x0807d0cd    0x34  Code  Gb  stf4_bsp_dout.o [1]
bsp_dout_initCh         0x0807d13b    0x88  Code  Gb  stf4_bsp_dout.o [1]
bsp_dout_setWCState     0x0807d101    0x3a  Code  Gb  stf4_bsp_dout.o [1]
bsp_dout_wettingCurrentEnable
                        0x0807d285    0x88  Code  Gb  stf4_bsp_dout.o [1]
bsp_ecuid               0x0809123c     0x4  Data  Gb  stf4_bsp_ecuid.o [1]
bsp_ecuid_init          0x0807c4c1    0x4c  Code  Gb  stf4_bsp_ecuid.o [1]
bsp_enterCritical       0x0807514d    0x12  Code  Gb  stf4_bsp_mcu.o [1]
bsp_exitCritical        0x0807515f    0x12  Code  Gb  stf4_bsp_mcu.o [1]
bsp_fifo_flush          0x0807eff9     0xe  Code  Gb  stf4_fifo.o [1]
bsp_fifo_get            0x0807f095    0x52  Code  Gb  stf4_fifo.o [1]
bsp_fifo_init           0x0807efdd    0x1c  Code  Gb  stf4_fifo.o [1]
bsp_fifo_notEmpty       0x0807f083    0x12  Code  Gb  stf4_fifo.o [1]
bsp_fifo_notFull        0x0807f007    0x18  Code  Gb  stf4_fifo.o [1]
bsp_fifo_put            0x0807f01f    0x64  Code  Gb  stf4_fifo.o [1]
bsp_finEnable           0x0808370e     0x1  Data  Lc  ap_bsp.o [1]
bsp_fin_GetCountsPerSecond
                        0x0807d67b    0x24  Code  Gb  stf4_bsp_fin.o [1]
bsp_fin_GetPeriodCount  0x0807d551    0xb6  Code  Gb  stf4_bsp_fin.o [1]
bsp_fin_GetPerioduS     0x0807d607    0x74  Code  Gb  stf4_bsp_fin.o [1]
bsp_fin_init            0x0807d3a5     0x8  Code  Gb  stf4_bsp_fin.o [1]
bsp_fin_initCh          0x0807d3ad   0x1a4  Code  Gb  stf4_bsp_fin.o [1]
bsp_init                0x08075821    0x7e  Code  Gb  ap_bsp.o [1]
bsp_isSystemBusy        0x080758b1     0x8  Code  Gb  ap_bsp.o [1]
bsp_mcu_init            0x08075007    0xc2  Code  Gb  stf4_bsp_mcu.o [1]
bsp_mcu_kickTaskWatchdog
                        0x0807511b    0x2c  Code  Gb  stf4_bsp_mcu.o [1]
bsp_mcu_maxStack        0x0807519d     0x6  Code  Gb  stf4_bsp_mcu.o [1]
bsp_mcu_requestReset    0x08075171    0x2c  Code  Gb  stf4_bsp_mcu.o [1]
bsp_mcu_run             0x080750c9    0x52  Code  Gb  stf4_bsp_mcu.o [1]
bsp_mcu_setBusy         0x08075147     0x6  Code  Gb  stf4_bsp_mcu.o [1]
bsp_nvm_checksum        0x0807b623    0x8c  Code  Gb  stf4_bsp_nvm.o [1]
bsp_nvm_getTestStatus   0x0807b733    0x38  Code  Gb  stf4_bsp_nvm.o [1]
bsp_nvm_init            0x0807b361    0xa8  Code  Gb  stf4_bsp_nvm.o [1]
bsp_nvm_isBusy          0x0807b54d    0x26  Code  Gb  stf4_bsp_nvm.o [1]
bsp_nvm_read            0x0807b573    0x58  Code  Gb  stf4_bsp_nvm.o [1]
bsp_nvm_run             0x0807b409   0x144  Code  Gb  stf4_bsp_nvm.o [1]
bsp_nvm_startTest       0x0807b6af    0x84  Code  Gb  stf4_bsp_nvm.o [1]
bsp_nvm_write           0x0807b5cb    0x58  Code  Gb  stf4_bsp_nvm.o [1]
bsp_pwmEnable           0x080911e4     0xc  Data  Lc  ap_bsp.o [1]
bsp_pwmMap              0x080911fc     0xc  Data  Lc  hw_pwm.o [1]
bsp_pwm_GetFrequency    0x0807db59    0x4c  Code  Gb  stf4_bsp_pwm.o [1]
bsp_pwm_GetRatio        0x0807dadd    0x3e  Code  Gb  stf4_bsp_pwm.o [1]
bsp_pwm_SetFrequency    0x0807db1b    0x3e  Code  Gb  stf4_bsp_pwm.o [1]
bsp_pwm_SetRatio        0x0807da67    0x76  Code  Gb  stf4_bsp_pwm.o [1]
bsp_pwm_init            0x0807d88d    0x7c  Code  Gb  stf4_bsp_pwm.o [1]
bsp_pwm_initCh          0x0807d909   0x15e  Code  Gb  stf4_bsp_pwm.o [1]
bsp_rom_getStartAddr    0x0807c3fb    0x30  Code  Gb  stf4_bsp_rom.o [1]
bsp_rom_init            0x0807c3f9     0x2  Code  Gb  stf4_bsp_rom.o [1]
bsp_rom_isROM           0x0807c42b    0x42  Code  Gb  stf4_bsp_rom.o [1]
bsp_rom_readDirectRAM   0x0807c4a7    0x1a  Code  Gb  stf4_bsp_rom.o [1]
bsp_rom_readDirectROM   0x0807c47d    0x2a  Code  Gb  stf4_bsp_rom.o [1]
bsp_rom_sectorInfo      0x080904dc   0x120  Data  Gb  stf4_bsp_rom.o [1]
bsp_rtc_get             0x0807c329     0xe  Code  Gb  stf4_bsp_rtc.o [1]
bsp_rtc_init            0x0807c1ed   0x102  Code  Gb  stf4_bsp_rtc.o [1]
bsp_rtc_run             0x0807c2ef     0x8  Code  Gb  stf4_bsp_rtc.o [1]
bsp_rtc_set             0x0807c2f7    0x32  Code  Gb  stf4_bsp_rtc.o [1]
bsp_rtc_set{1}{2}::RTC_TimeStruct
                        0x20007434     0x4  Data  Lc  stf4_bsp_rtc.o [1]
bsp_run                 0x0807589f    0x12  Code  Gb  ap_bsp.o [1]
bsp_sdata_getAppMode    0x0807c5e3    0x16  Code  Gb  stf4_bsp_sdata.o [1]
bsp_sdata_getBBProgParams
                        0x0807c61f    0x3e  Code  Gb  stf4_bsp_sdata.o [1]
bsp_sdata_getBootBlockMode
                        0x0807c609    0x16  Code  Gb  stf4_bsp_sdata.o [1]
bsp_sdata_init          0x0807c515    0xbe  Code  Gb  stf4_bsp_sdata.o [1]
bsp_sdata_setAppMode    0x0807c5d3    0x10  Code  Gb  stf4_bsp_sdata.o [1]
bsp_sdata_setBootBlockMode
                        0x0807c5f9    0x10  Code  Gb  stf4_bsp_sdata.o [1]
bsp_sdata_setCanTermDisable
                        0x0807c65d    0x3e  Code  Gb  stf4_bsp_sdata.o [1]
bsp_sleep               0x080758cb    0x2a  Code  Gb  ap_bsp.o [1]
bsp_sleep::msClock      0x20007294     0x4  Data  Lc  ap_bsp.o [1]
bsp_sleep::sysTickTimer
                        0x20007290     0x4  Data  Lc  ap_bsp.o [1]
bsp_task                0x20005d48    0x30  Data  Lc  ap.o [1]
bsp_taskConfig          0x08090dc4    0x24  Data  Lc  ap.o [1]
bsp_taskInit            0x080758b9     0x2  Code  Gb  ap_bsp.o [1]
bsp_taskRun             0x080758bb    0x10  Code  Gb  ap_bsp.o [1]
bsp_taskStats           0x20005804    0x78  Data  Lc  ap.o [1]
btn_JogShuttleAux       0x20007649     0x1  Data  Gb  global.o [1]
btn_JogShuttleLights    0x2000764a     0x1  Data  Gb  global.o [1]
buffer_password         0x2000719c     0xc  Data  Gb  ap_keylessentry.o [1]
button_AutoIdle         0x200076f6     0x1  Data  Gb  MX_Gtwy_Control.o [1]
button_Aux              0x200076f7     0x1  Data  Gb  MX_Gtwy_Control.o [1]
button_AuxReleaseAck    0x200076f1     0x1  Data  Gb  MX_Gtwy_Control.o [1]
button_AuxReleaseBack   0x200076f2     0x1  Data  Gb  MX_Gtwy_Control.o [1]
button_AuxReleaseExit   0x200076f3     0x1  Data  Gb  MX_Gtwy_Control.o [1]
button_Info             0x200076f4     0x1  Data  Gb  MX_Gtwy_Control.o [1]
button_Lights           0x200076f5     0x1  Data  Gb  MX_Gtwy_Control.o [1]
cabKeyDetect            0x200076d1     0x1  Data  Gb  MX_Gtwy_Control.o [1]
calcFlt_VBattery        0x20007574     0x2  Data  Gb  MX_Gtwy_Control.o [1]
calc_EngineSpeed        0x20007550     0x2  Data  Gb  MX_Gtwy_Control.o [1]
calc_VBattery           0x20007572     0x2  Data  Gb  MX_Gtwy_Control.o [1]
calc_ifbk_AuxBase       0x20007580     0x2  Data  Gb  MX_Gtwy_Control.o [1]
calc_ifbk_AuxRod        0x2000757e     0x2  Data  Gb  MX_Gtwy_Control.o [1]
calc_ifbk_DumpValve     0x2000757c     0x2  Data  Gb  MX_Gtwy_Control.o [1]
calc_ifbk_OffsetBase    0x2000757a     0x2  Data  Gb  MX_Gtwy_Control.o [1]
calc_ifbk_OffsetRod     0x20007578     0x2  Data  Gb  MX_Gtwy_Control.o [1]
canFIFO                 0x20005b30    0x60  Data  Lc  stf4_bsp_can.o [1]
canRegs                 0x08091220     0x8  Data  Lc  stf4_bsp_can.o [1]
can_ACD_AuxCommand      0x20007642     0x1  Data  Gb  global.o [1]
can_ACD_EStop           0x20007641     0x1  Data  Gb  global.o [1]
can_ACD_EngineStart     0x2000763f     0x1  Data  Gb  global.o [1]
can_FuelConsumption     0x200073d0     0x4  Data  Gb  global.o [1]
can_FuelRate            0x20007468     0x2  Data  Gb  ap_can.o [1]
can_FuelTemp            0x2000750c     0x2  Data  Gb  global.o [1]
can_KeylessEntry        0x200073dc     0x4  Data  Gb  global.o [1]
can_Keypad              0x200073d8     0x4  Data  Gb  global.o [1]
can_OffsetSelectSw      0x2000762c     0x1  Data  Gb  global.o [1]
can_RightHandleSelectSw
                        0x2000762d     0x1  Data  Gb  global.o [1]
can_ST_EStop            0x20007630     0x1  Data  Gb  global.o [1]
can_ST_EngineStart      0x2000762e     0x1  Data  Gb  global.o [1]
capacityData            0x200071e4     0x8  Data  Lc  ap_bservice_CANStd.o [1]
capacityDataMsg         0x20005f88    0x30  Data  Gb  ap_bservice_CANStd.o [1]
capacityData_rx_callback(hw_can_msg_t *)
                        0x0808b5a9    0x36  Code  Gb  ap_bservice_CANStd.o [1]
capturePort             0x0807a7b3    0x30  Code  Lc  stf4_iic.o [1]
cdataAddress            0x20007298     0x4  Data  Lc  ap_cdata.o [1]
check_LeftNeutral       0x200076d6     0x1  Data  Gb  MX_Gtwy_Control.o [1]
check_RightNeutral      0x200076d7     0x1  Data  Gb  MX_Gtwy_Control.o [1]
cmdInverter             0x20007665     0x1  Data  Gb  MX_Gtwy_Control.o [1]
cmd_AutoIdle            0x20007679     0x1  Data  Gb  MX_Gtwy_Control.o [1]
cmd_AuxEnable_ACD       0x20007643     0x1  Data  Gb  global.o [1]
cmd_AuxEnable_ST        0x20007631     0x1  Data  Gb  global.o [1]
cmd_AuxRelease          0x20007677     0x1  Data  Gb  MX_Gtwy_Control.o [1]
cmd_Diverter            0x200076ea     0x1  Data  Gb  MX_Gtwy_Control.o [1]
cmd_Throttle            0x20007524     0x2  Data  Gb  MX_Gtwy_Control.o [1]
cnt_TryAgain            0x200075e3     0x1  Data  Gb  ap_eeprom.o [1]
code_severity(unsigned char, unsigned char)
                        0x08077b09    0x60  Code  Gb  ap_bservice_CAN04.o [1]
comFIFO                 0x20005b90    0x60  Data  Lc  stf4_bsp_com.o [1]
com_0_rxBuffer          0x2000501c   0x100  Data  Lc  stf4_bsp_com.o [1]
com_0_txBuffer          0x2000511c   0x100  Data  Lc  stf4_bsp_com.o [1]
com_1_rxBuffer          0x2000521c   0x100  Data  Lc  stf4_bsp_com.o [1]
com_1_txBuffer          0x20004840   0x200  Data  Lc  stf4_bsp_com.o [1]
composeTime             0x0807c3db    0x1c  Code  Lc  stf4_bsp_rtc.o [1]
control                 0x200071ec     0x8  Data  Lc  ap_bservice_CANStd.o [1]
controlAnswer           0x20007462     0x2  Data  Lc  ap_bservice_CANStd.o [1]
controlAnswerMsg        0x20005fe8    0x30  Data  Gb  ap_bservice_CANStd.o [1]
controlAnswer_rx_callback(hw_can_msg_t *)
                        0x0808b60d    0x2e  Code  Gb  ap_bservice_CANStd.o [1]
count_AFPlugged         0x20007570     0x2  Data  Gb  MX_Gtwy_Control.o [1]
count_GeneralIcon       0x200075b9     0x1  Data  Gb  ap_can.o [1]
count_GlowPlug          0x20007534     0x2  Data  Gb  MX_Gtwy_Control.o [1]
count_Vital             0x200075bc     0x1  Data  Gb  ap_deluxeG5.o [1]
critCount               0x2000740c     0x4  Data  Lc  stf4_bsp_mcu.o [1]
cstartup                0x0807b351     0xc  Code  Lc  iar_stf4_cstartup.o [1]
cstartup_getRamVec      0x0807b309     0xe  Code  Gb  iar_stf4_cstartup.o [1]
cstartup_getResetVec    0x0807b325     0x6  Code  Gb  iar_stf4_cstartup.o [1]
cstartup_getSavedData   0x0807b32b     0xe  Code  Gb  iar_stf4_cstartup.o [1]
cstartup_getStackTop    0x0807b317     0xe  Code  Gb  iar_stf4_cstartup.o [1]
currentHourMeter        0x200075f8     0x1  Data  Gb  ap_subs.o [1]
current_FuelConsumption
                        0x200074ac     0x2  Data  Gb  global.o [1]
current_user            0x200075a9     0x1  Data  Gb  ap_bservice_CAN04.o [1]
cycleTime               0x2000745a     0x2  Data  Lc  ap_bservice_CANOpen.o [1]
cycleTimeControlMsg     0x20007464     0x2  Data  Gb  ap_bservice_CANStd.o [1]
cycleTimeTPDO1          0x2000745e     0x2  Data  Lc  ap_bservice_CANOpen.o [1]
cycleTimeTPDO2          0x2000745c     0x2  Data  Lc  ap_bservice_CANOpen.o [1]
ddpPasswordScreenChanged
                        0x20007607     0x1  Data  Gb  global.o [1]
ddpServiceScreenFlag    0x200075fe     0x1  Data  Gb  global.o [1]
ddpSwitchStatus         0x2000720c     0x8  Data  Gb  ap_deluxeG5.o [1]
ddp_MachineLock         0x2000764c     0x1  Data  Gb  global.o [1]
dealerInfoSent          0x200075f0     0x1  Data  Gb  ap_main.o [1]
debugBuffer             0x20004f1c   0x100  Data  Lc  ap_bsp.o [1]
decomposeTime           0x0807c39d    0x3e  Code  Lc  stf4_bsp_rtc.o [1]
default_isr             0x0807b35d     0x2  Code  Lc  iar_stf4_cstartup.o [1]
delay_Buzzer            0x200005dc     0x2  Data  Gb  ap_bservice_CAN04.o [1]
delay_DepthBeep         0x200074fa     0x2  Data  Gb  global.o [1]
derate_Throttle         0x200076b5     0x1  Data  Gb  MX_Gtwy_Control.o [1]
dfbk_FuelPriOutput      0x2000761f     0x1  Data  Gb  global.o [1]
dfbk_GlowPlugOutput     0x2000761d     0x1  Data  Gb  global.o [1]
dfbk_HVACOutput         0x20007623     0x1  Data  Gb  global.o [1]
dfbk_HydExchange        0x20007622     0x1  Data  Gb  global.o [1]
dfbk_LightsOutput       0x20007621     0x1  Data  Gb  global.o [1]
dfbk_PBValveOutput      0x20007628     0x1  Data  Gb  global.o [1]
dfbk_StarterOutput      0x20007616     0x1  Data  Gb  global.o [1]
dfbk_SwPowerOutput      0x2000761b     0x1  Data  Gb  global.o [1]
dinBuffer               0x2000706c    0x14  Data  Lc  stf4_bsp_din.o [1]
dinPort                 0x08090e30    0x24  Data  Lc  stf4_bsp_din.o [1]
din_ACOn                0x20007614     0x1  Data  Gb  global.o [1]
din_AirFilter           0x20007612     0x1  Data  Gb  global.o [1]
din_Detent              0x20007624     0x1  Data  Gb  global.o [1]
din_EngineStart         0x20007619     0x1  Data  Gb  global.o [1]
din_FuelPriRelay        0x2000761e     0x1  Data  Gb  global.o [1]
din_GlowPlugRelay       0x2000761c     0x1  Data  Gb  global.o [1]
din_HCFilter1           0x20007613     0x1  Data  Gb  global.o [1]
din_LeftHandleSelectSw  0x2000762a     0x1  Data  Gb  global.o [1]
din_LightsRelay         0x20007625     0x1  Data  Gb  global.o [1]
din_OWDEnableSw         0x20007629     0x1  Data  Gb  global.o [1]
din_PBValveRelay        0x20007627     0x1  Data  Gb  global.o [1]
din_RemoteKey           0x20007618     0x1  Data  Gb  global.o [1]
din_RunEnter            0x20007617     0x1  Data  Gb  global.o [1]
din_SecondAuxSw         0x20007626     0x1  Data  Gb  global.o [1]
din_StarterRelay        0x20007620     0x1  Data  Gb  global.o [1]
din_SwPowerRelay        0x2000761a     0x1  Data  Gb  global.o [1]
din_TwoSpeedSwitch      0x20007615     0x1  Data  Gb  global.o [1]
din_pinConfig           0x08090714   0x108  Data  Lc  stf4_bsp_din.o [1]
directMap               0x08090b78    0x48  Data  Lc  hw_io.o [1]
disableAllInterrupts    0x0807530b    0x4c  Code  Lc  stf4_bsp_mcu.o [1]
disp_LeftControl        0x20007666     0x1  Data  Gb  MX_Gtwy_Control.o [1]
disp_RightControl       0x20007667     0x1  Data  Gb  MX_Gtwy_Control.o [1]
div_repeat_s32_near(int, int, unsigned int)
                        0x0805294b    0xea  Code  Gb  MX_Gtwy_Control.o [1]
div_s16u32(unsigned int, unsigned int)
                        0x08052893    0x14  Code  Gb  MX_Gtwy_Control.o [1]
div_s32(int, int)       0x08052839    0x5a  Code  Gb  MX_Gtwy_Control.o [1]
div_s32_floor(int, int)
                        0x08052b27    0x80  Code  Gb  MX_Gtwy_Control.o [1]
div_u32_near(unsigned int, unsigned int)
                        0x08052a35    0x28  Code  Gb  MX_Gtwy_Control.o [1]
dlxMode                 0x200075c4     0x1  Data  Gb  ap_deluxeG5.o [1]
dlx_G55_AutoIdle        0x20007644     0x1  Data  Gb  global.o [1]
dlx_G55_AutoIdleTime    0x20007646     0x1  Data  Gb  global.o [1]
dlx_G55_EcoMode         0x20007645     0x1  Data  Gb  global.o [1]
dma_irqHandler          0x0807ce45    0x74  Code  Lc  stf4_bsp_adc.o [1]
dout_Buzzer             0x200076ec     0x1  Data  Gb  MX_Gtwy_Control.o [1]
dout_FuelPri            0x200076e8     0x1  Data  Gb  MX_Gtwy_Control.o [1]
dout_GlowPlug           0x200076e6     0x1  Data  Gb  MX_Gtwy_Control.o [1]
dout_HVACOutput         0x200076e7     0x1  Data  Gb  MX_Gtwy_Control.o [1]
dout_HydExchange        0x200076e3     0x1  Data  Gb  MX_Gtwy_Control.o [1]
dout_Lights             0x200076e2     0x1  Data  Gb  MX_Gtwy_Control.o [1]
dout_PBValve            0x200076df     0x1  Data  Gb  MX_Gtwy_Control.o [1]
dout_Starter            0x200076de     0x1  Data  Gb  MX_Gtwy_Control.o [1]
dout_SwitchedPwr        0x200076dd     0x1  Data  Gb  MX_Gtwy_Control.o [1]
dout_pinConfig          0x0808fd24   0x204  Data  Lc  stf4_bsp_dout.o [1]
downgradedFromDDP       0x20007600     0x1  Data  Gb  global.o [1]
dropped_message         0x2000751a     0x2  Data  Gb  hw_can_txq.o [1]
duty_FuelSec            0x2000758c     0x2  Data  Gb  MX_Gtwy_Control.o [1]
duty_TwoSpeed           0x20007582     0x2  Data  Gb  MX_Gtwy_Control.o [1]
dvCommand               0x20007476     0x2  Data  Gb  ap_dv.o [1]
dvPanelOn               0x200075dc     0x1  Data  Gb  ap_dv.o [1]
dvPassword              0x20007474     0x2  Data  Gb  ap_dv.o [1]
dvRamDoneFlag           0x200075d9     0x1  Data  Gb  ap_dv.o [1]
dvTest                  0x200075d8     0x1  Data  Gb  ap_dv.o [1]
dvTestDone              0x200075da     0x1  Data  Gb  ap_dv.o [1]
dvTestHourMeter         0x200075d7     0x1  Data  Gb  ap_dv.o [1]
dv_TurboPrime           0x20007652     0x1  Data  Gb  global.o [1]
dv_list                 0x2000728c     0x4  Data  Gb  ap_bservice_dv.o [1]
dv_table                0x0808efdc   0x400  Data  Lc  ap_dv.o [1]
dv_table2               0x08090128   0x1f0  Data  Lc  ap_dv.o [1]
dv_table_block::id()    0x0808346f     0x4  Code  Gb  ap_bservice_dv.o [1]
dv_table_block::initialize(unsigned char)
                        0x0807e1cd    0x20  Code  Gb  ap_bservice_dv.o [1]
dv_table_block::read_byte(unsigned char)
                        0x080833bf    0x1e  Code  Gb  ap_bservice_dv.o [1]
dv_table_block::read_dword(unsigned char)
                        0x080833fb    0x1c  Code  Gb  ap_bservice_dv.o [1]
dv_table_block::read_word(unsigned char)
                        0x080833dd    0x1e  Code  Gb  ap_bservice_dv.o [1]
dv_table_block::set_read_byte_f(unsigned char (*)(unsigned short))
                        0x0807e32d     0x4  Code  Gb  ap_dv.o [1]
dv_table_block::set_read_dword_f(unsigned int (*)(unsigned short))
                        0x0808e201     0x4  Code  Gb  ap_dv.o [1]
dv_table_block::set_read_word_f(unsigned short (*)(unsigned short))
                        0x0807e331     0x4  Code  Gb  ap_hwt.o [1]
dv_table_block::set_write_byte_f(void (*)(unsigned short, unsigned char))
                        0x0808e205     0x4  Code  Gb  ap_dv.o [1]
dv_table_block::set_write_dword_f(void (*)(unsigned short, unsigned int))
                        0x0808e20d     0x4  Code  Gb  ap_dv.o [1]
dv_table_block::set_write_word_f(void (*)(unsigned short, unsigned short))
                        0x0808e209     0x4  Code  Gb  ap_hwt.o [1]
dv_table_block::write_byte(unsigned char, unsigned char)
                        0x08083417    0x1e  Code  Gb  ap_bservice_dv.o [1]
dv_table_block::write_dword(unsigned char, unsigned int)
                        0x08083453    0x1c  Code  Gb  ap_bservice_dv.o [1]
dv_table_block::write_word(unsigned char, unsigned short)
                        0x08083435    0x1e  Code  Gb  ap_bservice_dv.o [1]
dv_table_block_list::GetBlock(unsigned short)
                        0x0807e309    0x24  Code  Gb  ap_bservice_dv.o [1]
dv_table_block_list::add_block(dv_table_block *)
                        0x0807e1ed    0x1e  Code  Gb  ap_bservice_dv.o [1]
dv_table_block_list::read_byte(unsigned short)
                        0x0807e20b    0x2c  Code  Gb  ap_bservice_dv.o [1]
dv_table_block_list::read_dword(unsigned short)
                        0x0807e263    0x2a  Code  Gb  ap_bservice_dv.o [1]
dv_table_block_list::read_word(unsigned short)
                        0x0807e237    0x2c  Code  Gb  ap_bservice_dv.o [1]
dv_table_block_list::write_byte(unsigned short, unsigned char)
                        0x0807e28d    0x2a  Code  Gb  ap_bservice_dv.o [1]
dv_table_block_list::write_dword(unsigned short, unsigned int)
                        0x0807e2e1    0x28  Code  Gb  ap_bservice_dv.o [1]
dv_table_block_list::write_word(unsigned short, unsigned short)
                        0x0807e2b7    0x2a  Code  Gb  ap_bservice_dv.o [1]
ecu_AirInletTemp        0x200074aa     0x2  Data  Gb  global.o [1]
ecu_BarPressure         0x2000760f     0x1  Data  Gb  global.o [1]
ecu_ECT                 0x20007500     0x2  Data  Gb  global.o [1]
ecu_EOP                 0x20007632     0x1  Data  Gb  global.o [1]
ecu_EOT                 0x2000750e     0x2  Data  Gb  global.o [1]
ecu_EngineSpeed         0x20007502     0x2  Data  Gb  global.o [1]
ecu_EngineStarterMode   0x20007636     0x1  Data  Gb  global.o [1]
ecu_GlowPlug            0x20007635     0x1  Data  Gb  global.o [1]
ecu_HP                  0x20007638     0x1  Data  Gb  global.o [1]
ecu_Hours               0x200073cc     0x4  Data  Gb  global.o [1]
ecu_PercentTorque       0x20007637     0x1  Data  Gb  global.o [1]
ecu_SOFT                0x20006f18    0x20  Data  Gb  global.o [1]
ecu_isocMaxRPM          0x20007506     0x2  Data  Gb  global.o [1]
ecu_isocMinRPM          0x20007508     0x2  Data  Gb  global.o [1]
ecuid                   0x200071a8     0xc  Data  Lc  stf4_bsp_ecuid.o [1]
ecuidInvalid            0x200076f8     0x1  Data  Lc  stf4_bsp_ecuid.o [1]
ee1_buffer              0x200005ec  0x2000  Data  Lc  stf4_bsp_nvm.o [1]
ee1_bufferFlags         0x20006f38    0x20  Data  Lc  stf4_bsp_nvm.o [1]
ee2_buffer              0x2000541c   0x100  Data  Lc  stf4_bsp_nvm.o [1]
ee2_bufferFlags         0x20006f58    0x20  Data  Lc  stf4_bsp_nvm.o [1]
eeBusy                  0x200075e1     0x1  Data  Gb  ap_eeprom.o [1]
eeCheckSum              0x200075de     0x1  Data  Gb  ap_eeprom.o [1]
eeDataToWrite           0x200073b8     0x4  Data  Gb  ap_eeprom.o [1]
eeDeviceAddress         0x2000747c     0x2  Data  Gb  ap_eeprom.o [1]
eeMirror                0x200025ec   0xa10  Data  Gb  ap_eeprom.o [1]
eeMode                  0x200075e0     0x1  Data  Gb  ap_eeprom.o [1]
eeServiceEEPROM()       0x08056bc1   0x5fa  Code  Gb  ap_eeprom.o [1]
eeState                 0x200075df     0x1  Data  Gb  ap_eeprom.o [1]
eeTimeToUpdateMirror    0x200075e2     0x1  Data  Gb  ap_eeprom.o [1]
eeUpdate                0x200073c8     0x4  Data  Gb  ap_subs.o [1]
eeWriteActualCounter    0x20007482     0x2  Data  Gb  ap_eeprom.o [1]
eeWriteAttemptCounter   0x20007480     0x2  Data  Gb  ap_eeprom.o [1]
eeWriteDataCounter      0x2000747e     0x2  Data  Gb  ap_eeprom.o [1]
ee_MasterPassword       0x20007244     0x8  Data  Gb  global.o [1]
ee_OwnerPassword        0x2000723c     0x8  Data  Gb  global.o [1]
ee_User1Password        0x2000724c     0x8  Data  Gb  global.o [1]
ee_User2Password        0x20007254     0x8  Data  Gb  global.o [1]
eepromConfig            0x08090d14    0x30  Data  Lc  stf4_bsp_nvm.o [1]
eepromData              0x20006f78    0x20  Data  Lc  stf4_bsp_nvm.o [1]
enable_ECUDM1           0x20007610     0x1  Data  Gb  global.o [1]
enable_RightLeft        0x20007690     0x1  Data  Gb  MX_Gtwy_Control.o [1]
energyData              0x2000716c     0xc  Data  Lc  ap_bservice_CANStd.o [1]
energyDataMsg           0x20005fb8    0x30  Data  Gb  ap_bservice_CANStd.o [1]
energyData_rx_callback(hw_can_msg_t *)
                        0x0808b5e1    0x2a  Code  Gb  ap_bservice_CANStd.o [1]
errorCC_AuxBase         0x2000759c     0x2  Data  Gb  MX_Gtwy_Control.o [1]
errorCC_AuxRod          0x2000759e     0x2  Data  Gb  MX_Gtwy_Control.o [1]
errorCC_DumpValve       0x2000759a     0x2  Data  Gb  MX_Gtwy_Control.o [1]
errorCC_OffsetBase      0x20007596     0x2  Data  Gb  MX_Gtwy_Control.o [1]
errorCC_OffsetRod       0x20007598     0x2  Data  Gb  MX_Gtwy_Control.o [1]
error_FuelSec           0x200076a8     0x1  Data  Gb  MX_Gtwy_Control.o [1]
eventStartTime          0x2000565c    0xa0  Data  Gb  ap_eeprom.o [1]
eventState              0x20006cd8    0x28  Data  Gb  ap_eeprom.o [1]
exit                    0x08083f2d     0x4  Code  Gb  exit.o [3]
expected_challenge_response
                        0x200073b0     0x4  Data  Lc  ap_deluxeG55.o [1]
failureCode             0x20007080    0x10  Data  Gb  ap_bservice_CAN04.o [1]
failureError            0x200071c4     0x8  Data  Lc  ap_bservice_CANStd.o [1]
failureErrorMsg         0x20005e98    0x30  Data  Gb  ap_bservice_CANStd.o [1]
failureError_rx_callback(hw_can_msg_t *)
                        0x0808b4ed     0xe  Code  Gb  ap_bservice_CANStd.o [1]
fakeManuData            0x0809081c   0x100  Data  Gb  ap_eeprom_bsp.o [1]
fatalError              0x200071bc     0x8  Data  Lc  ap_bservice_CANStd.o [1]
fatalErrorMsg           0x20005e68    0x30  Data  Gb  ap_bservice_CANStd.o [1]
fatalError_rx_callback(hw_can_msg_t *)
                        0x0808b4dd     0xe  Code  Gb  ap_bservice_CANStd.o [1]
fdbk_CANThrottle        0x200074fe     0x2  Data  Gb  global.o [1]
fin_config              0x080909bc    0x90  Data  Lc  stf4_bsp_fin.o [1]
fin_data                0x2000531c   0x100  Data  Lc  stf4_bsp_fin.o [1]
findNexWrite            0x0807b81b    0x6a  Code  Lc  stf4_bsp_nvm.o [1]
flag_ActiveWarning      0x20007609     0x1  Data  Gb  global.o [1]
flag_AuxEnableFlash     0x200076d4     0x1  Data  Gb  MX_Gtwy_Control.o [1]
flag_AuxModeReminder    0x200076d5     0x1  Data  Gb  MX_Gtwy_Control.o [1]
flag_DDPLock            0x200075ef     0x1  Data  Gb  ap_main.o [1]
flag_DeluxeProg         0x200075c2     0x1  Data  Gb  ap_deluxeG5.o [1]
flag_HourOverflow       0x200075f9     0x1  Data  Gb  ap_subs.o [1]
flag_InitEERead         0x20007650     0x1  Data  Gb  global.o [1]
flag_KeylessPwdSet      0x200075ec     0x1  Data  Gb  ap_keylessstart.o [1]
flag_NewUserData        0x200075bf     0x1  Data  Gb  ap_deluxeG5.o [1]
flag_PasswordSent       0x200075bd     0x1  Data  Gb  ap_deluxeG5.o [1]
flag_RxDPFHours         0x2000760e     0x1  Data  Gb  global.o [1]
flag_RxECUHours         0x2000760d     0x1  Data  Gb  global.o [1]
flag_RxRPMMax           0x2000760b     0x1  Data  Gb  global.o [1]
flag_RxRPMMin           0x2000760c     0x1  Data  Gb  global.o [1]
flag_SendDeluxeWarning  0x200075ff     0x1  Data  Gb  global.o [1]
flag_SendWarningHistory
                        0x200075c0     0x1  Data  Gb  ap_deluxeG5.o [1]
flag_Sent               0x200075be     0x1  Data  Gb  ap_deluxeG5.o [1]
flag_SentWarningHistory
                        0x200075c1     0x1  Data  Gb  ap_deluxeG5.o [1]
flag_StdActiveWarn      0x2000760a     0x1  Data  Gb  global.o [1]
flag_UpdateUserV3       0x200075e4     0x1  Data  Gb  ap_eeprom.o [1]
flow_Aux1Percent        0x2000763a     0x1  Data  Gb  global.o [1]
flow_Aux2Percent        0x2000763b     0x1  Data  Gb  global.o [1]
flow_Aux4Percent        0x2000763c     0x1  Data  Gb  global.o [1]
flow_OffsetPercent      0x2000763d     0x1  Data  Gb  global.o [1]
flt_ECT                 0x20007566     0x2  Data  Gb  MX_Gtwy_Control.o [1]
flt_EOP                 0x20007554     0x2  Data  Gb  MX_Gtwy_Control.o [1]
flt_EngineSpeed         0x20007552     0x2  Data  Gb  MX_Gtwy_Control.o [1]
flt_HOT                 0x20007548     0x2  Data  Gb  MX_Gtwy_Control.o [1]
freq_EngineSpeed        0x200073e0     0x4  Data  Gb  global.o [1]
gain_EngineSpeed        0x200076c3     0x1  Data  Gb  MX_Gtwy_Control.o [1]
gatway_rx_mbox          0x20005ad0    0x60  Data  Gb  ap_gateway.o [1]
gau_ECT                 0x20007564     0x2  Data  Gb  MX_Gtwy_Control.o [1]
gau_EOP                 0x20007556     0x2  Data  Gb  MX_Gtwy_Control.o [1]
gau_FuelLevel           0x2000754e     0x2  Data  Gb  MX_Gtwy_Control.o [1]
gau_HOT                 0x20007546     0x2  Data  Gb  MX_Gtwy_Control.o [1]
getCycleTime()          0x0808ab99    0x7a  Code  Gb  ap_bservice_CANOpen.o [1]
getGUARD_ID(unsigned char)
                        0x0808b167    0x22  Code  Gb  ap_bservice_CANOpen.o [1]
getPhoneState()         0x0808d095     0x6  Code  Gb  ap_deluxeG55.o [1]
getRPDO_ID(unsigned char, unsigned char)
                        0x0808b0f1    0x3a  Code  Gb  ap_bservice_CANOpen.o [1]
getTPDO_ID(unsigned char, unsigned char)
                        0x0808b12b    0x3c  Code  Gb  ap_bservice_CANOpen.o [1]
guardCycleTime          0x20007460     0x2  Data  Lc  ap_bservice_CANOpen.o [1]
gwServiceTimer          0x200074a6     0x2  Data  Gb  ap_subs.o [1]
hashKey                 0x08091108    0x10  Data  Lc  cancipher.o [1]
hourCounter             0x20006f98    0x18  Data  Gb  ap_eeprom.o [1]
hourMeter               0x200075dd     0x1  Data  Gb  ap_dv.o [1]
hourMeterUpdateTimer    0x200075f4     0x1  Data  Gb  ap_subs.o [1]
hs_AuxBase              0x20007592     0x2  Data  Gb  MX_Gtwy_Control.o [1]
hs_AuxRod               0x20007594     0x2  Data  Gb  MX_Gtwy_Control.o [1]
hs_Diverter             0x20007590     0x2  Data  Gb  MX_Gtwy_Control.o [1]
hs_DumpValve            0x2000758e     0x2  Data  Gb  MX_Gtwy_Control.o [1]
hs_HydBypass            0x2000758a     0x2  Data  Gb  MX_Gtwy_Control.o [1]
hs_HydEnable            0x20007588     0x2  Data  Gb  MX_Gtwy_Control.o [1]
hs_OffsetBase           0x20007584     0x2  Data  Gb  MX_Gtwy_Control.o [1]
hs_OffsetRod            0x20007586     0x2  Data  Gb  MX_Gtwy_Control.o [1]
hw_adc_GetValue(hw_adc_ch_t)
                        0x0807bb6d   0x1e8  Code  Gb  hw_adc.o [1]
hw_adc_initialize()     0x0807bd55     0x2  Code  Gb  hw_adc.o [1]
hw_adc_update()         0x0807bd57     0x2  Code  Gb  hw_adc.o [1]
hw_can_SendFrame(uint8_t, hw_can_msg_t *)::frame
                        0x200070b0    0x10  Data  Lc  hw_can.o [1]
hw_can_SendFrame(unsigned char, hw_can_msg_t *)
                        0x08074e81    0x1e  Code  Gb  hw_can.o [1]
hw_can_TxBufferAvailiable(unsigned char)
                        0x08074e6f    0x12  Code  Gb  hw_can.o [1]
hw_can_id::Extended_ID() const
                        0x08079bbb     0xc  Code  Gb  hw_can.o [1]
hw_can_id::Get_ID() const
                        0x08079bc7    0x22  Code  Gb  hw_can.o [1]
hw_can_id::get_J1939_DA() const
                        0x08079695    0x22  Code  Gb  J1939_TP_tx.o [1]
hw_can_id::get_J1939_PF() const
                        0x0807e793    0x1e  Code  Gb  J1939_TP_tx.o [1]
hw_can_id::get_J1939_PGN() const
                        0x0807e75b    0x30  Code  Gb  J1939_TP_tx.o [1]
hw_can_id::get_J1939_PS() const
                        0x0807e7b1    0x12  Code  Gb  J1939_TP_tx.o [1]
hw_can_id::get_J1939_SA() const
                        0x080796b7    0x12  Code  Gb  J1939_TP_tx.o [1]
hw_can_id::idr() const  0x0807f0f7    0x18  Code  Gb  hw_can.o [1]
hw_can_id::set_J1939ID(unsigned char, unsigned char, unsigned char, unsigned char)
                        0x08057921    0x3c  Code  Gb  SendMsgNow.o [1]
hw_can_id::set_J1939_DA(unsigned char)
                        0x0807e749    0x12  Code  Gb  J1939_TP_tx.o [1]
hw_can_id::set_J1939_PS(unsigned char)
                        0x0808361d    0x1c  Code  Gb  J1939_TP_tx.o [1]
hw_can_id::set_J1939_SA(unsigned char)
                        0x0807e733    0x16  Code  Gb  J1939_TP_tx.o [1]
hw_can_id::set_extID(unsigned int)
                        0x08079b83    0x22  Code  Gb  hw_can.o [1]
hw_can_id::set_idr(unsigned int)
                        0x0807f0e7    0x10  Code  Gb  hw_can.o [1]
hw_can_id::set_stdID(unsigned short)
                        0x08079ba5    0x16  Code  Gb  hw_can.o [1]
hw_can_initialize()     0x08074dcd    0x4e  Code  Gb  hw_can.o [1]
hw_can_msg_filter_list::add(hw_can_msg_filter_t *)
                        0x08089d53    0x28  Code  Gb  ap_gateway.o [1]
hw_can_msg_filter_list::initialize()
                        0x08089d4d     0x6  Code  Gb  ap_gateway.o [1]
hw_can_msg_filter_t::initialize()
                        0x08089c19    0x1a  Code  Gb  ap_gateway.o [1]
hw_can_msg_filter_t::match(hw_can_msg_t const *) const
                        0x08089c33    0x34  Code  Gb  ap_gateway.o [1]
hw_can_msg_t::get_byte(unsigned char)
                        0x080760d5     0xc  Code  Gb  J1939_TP_tx.o [1]
hw_can_msg_t::get_dword(unsigned char)
                        0x0807682d    0x3c  Code  Gb  ap_can.o [1]
hw_can_msg_t::get_word(unsigned char)
                        0x080792b5    0x26  Code  Gb  ap_deluxeG55.o [1]
hw_can_msg_t::set_byte(unsigned char, unsigned char)
                        0x0805795d     0xe  Code  Gb  SendMsgNow.o [1]
hw_can_msg_t::set_word(unsigned char, unsigned short)
                        0x080760b1    0x24  Code  Gb  ap_deluxeG55.o [1]
hw_can_rx_handler       0x2000725c     0x8  Data  Gb  hw_can.o [1]
hw_can_rx_handler_t::add_msg(hw_can_rxmsg *)
                        0x080761ab    0x28  Code  Gb  hw_can_rx.o [1]
hw_can_rx_handler_t::initialize()
                        0x080760ef     0x6  Code  Gb  hw_can_rx.o [1]
hw_can_rx_handler_t::process_msg(hw_can_msg_t *)
                        0x08076119    0x92  Code  Gb  hw_can_rx.o [1]
hw_can_rx_handler_t::update()
                        0x080760f5    0x24  Code  Gb  hw_can_rx.o [1]
hw_can_rxmsg::initialize()
                        0x080760e1     0xe  Code  Gb  hw_can_rx.o [1]
hw_can_tx_scheduler     0x20006fb0    0x18  Data  Gb  hw_can.o [1]
hw_can_tx_scheduler_t::add_msg(hw_can_txmsg *)
                        0x0805559f    0x2a  Code  Gb  hw_can_tx.o [1]
hw_can_tx_scheduler_t::get_next_msg()
                        0x08055535    0x6a  Code  Gb  hw_can_tx.o [1]
hw_can_tx_scheduler_t::initialize(unsigned char)
                        0x080554db     0xc  Code  Gb  hw_can_tx.o [1]
hw_can_tx_scheduler_t::update()
                        0x080554e7    0x4e  Code  Gb  hw_can_tx.o [1]
hw_can_txmsg::Disable()
                        0x0808e5b9    0x10  Code  Gb  ap_keylessentry.o [1]
hw_can_txmsg::Enable(unsigned char)
                        0x08074f6d    0x14  Code  Gb  hw_can_tx.o [1]
hw_can_txmsg::SendNow()
                        0x0805546b    0x58  Code  Gb  hw_can_tx.o [1]
hw_can_txmsg::SendRightNow()
                        0x080554c3    0x18  Code  Gb  hw_can_tx.o [1]
hw_can_txmsg::initialize()
                        0x08055445    0x26  Code  Gb  hw_can_tx.o [1]
hw_can_txmsg::set_send_rate(unsigned char)
                        0x08075ab9    0x14  Code  Gb  J1939_TP_tx.o [1]
hw_can_txq              0x20004600   0x240  Data  Gb  hw_can.o [1]
hw_can_txq_t::HWC_CAN0_txq
                        0x200073e8     0x4  Data  Gb  hw_can_txq.o [1]
hw_can_txq_t::HWC_CAN0_txq_post_tx_calback(hw_can_txmsg *)
                        0x080579e5    0x10  Code  Gb  hw_can_txq.o [1]
hw_can_txq_t::HWC_CAN4_txq
                        0x200073ec     0x4  Data  Gb  hw_can_txq.o [1]
hw_can_txq_t::HWC_CAN4_txq_post_tx_calback(hw_can_txmsg *)
                        0x080579f5    0x10  Code  Gb  hw_can_txq.o [1]
hw_can_txq_t::initialize(unsigned char)
                        0x08057a05    0x6c  Code  Gb  hw_can_txq.o [1]
hw_can_txq_t::post_tx_callback(hw_can_txmsg *)
                        0x08057b15    0x4c  Code  Gb  hw_can_txq.o [1]
hw_can_txq_t::send_msg(hw_can_msg_t const *)
                        0x08057a71    0x8c  Code  Gb  hw_can_txq.o [1]
hw_can_update()         0x08074e1b    0x3a  Code  Gb  hw_can.o [1]
hw_can_update_fast()    0x08074e55    0x1a  Code  Gb  hw_can.o [1]
hw_clock_S()            0x0807e729     0xa  Code  Gb  hw_clock.o [1]
hw_clock_mS()           0x0807e71f     0xa  Code  Gb  hw_clock.o [1]
hw_clock_uS()           0x0807e715     0xa  Code  Gb  hw_clock.o [1]
hw_din_GetBank(unsigned short)
                        0x080761fd     0xc  Code  Gb  hw_dio.o [1]
hw_din_GetValue(hw_din_ch_t)
                        0x080761d5    0x28  Code  Gb  hw_dio.o [1]
hw_din_data             0x200073f0     0x4  Data  Lc  hw_dio.o [1]
hw_dio_initialize()     0x0807629f    0xc8  Code  Gb  hw_dio.o [1]
hw_dio_update()         0x08076367    0x10  Code  Gb  hw_dio.o [1]
hw_dout_GetBank(unsigned char)
                        0x08076285     0xc  Code  Gb  hw_dio.o [1]
hw_dout_GetValue(hw_dout_ch_t)
                        0x0807625d    0x28  Code  Gb  hw_dio.o [1]
hw_dout_SetBank(unsigned char, unsigned short)
                        0x08076291     0xe  Code  Gb  hw_dio.o [1]
hw_dout_SetValue(hw_dout_ch_t, bool)
                        0x08076209    0x54  Code  Gb  hw_dio.o [1]
hw_dout_data            0x20007264     0x8  Data  Lc  hw_dio.o [1]
hw_fin_GetPeriodCount(hw_fin_ch_t)
                        0x08083525     0xe  Code  Gb  hw_fin.o [1]
hw_fin_GetPerioduS(hw_fin_ch_t)
                        0x08083533     0xc  Code  Gb  hw_fin.o [1]
hw_fin_initialize()     0x0808353f    0x10  Code  Gb  hw_fin.o [1]
hw_fin_update()         0x08083555     0x2  Code  Gb  hw_fin.o [1]
hw_gauge_GetPosition(hw_gauge_ch_t)
                        0x080835e5     0x8  Code  Gb  hw_gauge.o [1]
hw_gauge_SetPosition(hw_gauge_ch_t, unsigned short)
                        0x080835ed     0x2  Code  Gb  hw_gauge.o [1]
hw_gauge_initialize()   0x080835ef     0x2  Code  Gb  hw_gauge.o [1]
hw_gauge_update()       0x080835f1     0x2  Code  Gb  hw_gauge.o [1]
hw_io_initialize()      0x0807e559    0x2a  Code  Gb  hw_io.o [1]
hw_io_update()          0x0807e583    0x2c  Code  Gb  hw_io.o [1]
hw_mcu_GetPowerHold()   0x0807e391     0xa  Code  Gb  hw_mcu.o [1]
hw_mcu_HardwareID()     0x0807e353    0x2e  Code  Gb  hw_mcu.o [1]
hw_mcu_SetPowerHold(bool)
                        0x0807e381    0x10  Code  Gb  hw_mcu.o [1]
hw_mcu_heartbeatLED     0x200073f8     0x4  Data  Gb  hw_mcu.o [1]
hw_mcu_initialize()     0x0807e39b    0x3a  Code  Gb  hw_mcu.o [1]
hw_mcu_update()         0x0807e3d5    0x14  Code  Gb  hw_mcu.o [1]
hw_nvm_eeprom_checksum(unsigned short)
                        0x0807558f    0x6e  Code  Gb  hw_nvm.o [1]
hw_nvm_eeprom_read(hw_nvm_eeprom_section_t, unsigned short, unsigned short, unsigned char *)
                        0x080753e1    0x44  Code  Gb  hw_nvm.o [1]
hw_nvm_eeprom_read_uint16(hw_nvm_eeprom_section_t, unsigned short, unsigned short *)
                        0x08075425    0x52  Code  Gb  hw_nvm.o [1]
hw_nvm_eeprom_read_uint32(hw_nvm_eeprom_section_t, unsigned short, unsigned int *)
                        0x08075477    0x72  Code  Gb  hw_nvm.o [1]
hw_nvm_eeprom_write_pending()
                        0x080755fd     0x4  Code  Gb  hw_nvm.o [1]
hw_nvm_eeprom_write_uint16(hw_nvm_eeprom_section_t, unsigned short, unsigned short)
                        0x080754e9    0x4c  Code  Gb  hw_nvm.o [1]
hw_nvm_eeprom_write_uint32(hw_nvm_eeprom_section_t, unsigned short, unsigned int)
                        0x08075535    0x5a  Code  Gb  hw_nvm.o [1]
hw_nvm_initialize()     0x08075601    0x14  Code  Gb  hw_nvm.o [1]
hw_nvm_update()         0x08075615    0x74  Code  Gb  hw_nvm.o [1]
hw_pwm_GetFrequency(hw_pwm_ch_t)
                        0x080835bb    0x22  Code  Gb  hw_pwm.o [1]
hw_pwm_GetRatio16(hw_pwm_ch_t)
                        0x08083559    0x22  Code  Gb  hw_pwm.o [1]
hw_pwm_SetFrequency(hw_pwm_ch_t, unsigned short)
                        0x0808359b    0x20  Code  Gb  hw_pwm.o [1]
hw_pwm_SetRatio16(hw_pwm_ch_t, unsigned short)
                        0x0808357b    0x20  Code  Gb  hw_pwm.o [1]
hw_pwm_initialize()     0x080835e1     0x2  Code  Gb  hw_pwm.o [1]
hw_pwm_update()         0x080835e3     0x2  Code  Gb  hw_pwm.o [1]
hw_readByteDirect(unsigned int)
                        0x0807e5af    0x1a  Code  Gb  hw_io.o [1]
hw_readDwordDirect(unsigned int)
                        0x0807e5e7    0x2c  Code  Gb  hw_io.o [1]
hw_readWordDirect(unsigned int)
                        0x0807e5c9    0x1e  Code  Gb  hw_io.o [1]
hw_reset_force(unsigned char, unsigned char)
                        0x0807e3e9    0x24  Code  Gb  hw_mcu.o [1]
hw_reset_max_stack()    0x0807e425     0xa  Code  Gb  hw_mcu.o [1]
hw_stimer::expired() const
                        0x080753d1    0x10  Code  Gb  J1939_TP_tx.o [1]
hw_stimer::off() const  0x08075acd    0x10  Code  Gb  J1939_TP_tx.o [1]
hw_stimer::reset()      0x08074f67     0x6  Code  Gb  hw_can_tx.o [1]
hw_stimer::set(unsigned char)
                        0x08079be9     0x4  Code  Gb  J1939_TP_tx.o [1]
hw_stimer::set_rate(unsigned char)
                        0x08074dab     0x8  Code  Gb  J1939_TP_tx.o [1]
hw_stimer::update()     0x08074f81    0x14  Code  Gb  J1939_TP_tx.o [1]
hw_version              0x0808370f     0x1  Data  Gb  ap_version.o [1]
hwt_access_level        0x20007486     0x2  Data  Gb  ap_hwt.o [1]
hwt_access_seed         0x20007488     0x2  Data  Gb  ap_hwt.o [1]
hwt_base_address        0x080761d2     0x2  Data  Gb  ap_bservice.o [1]
hwt_block               0x20006ed8    0x20  Data  Gb  ap_hwt.o [1]
hwt_eeprom_address      0x2000748e     0x2  Data  Gb  ap_hwt.o [1]
hwt_eeprom_section      0x2000748c     0x2  Data  Gb  ap_hwt.o [1]
hwt_eeprom_status       0x2000748a     0x2  Data  Gb  ap_hwt.o [1]
hwt_eeprom_tcmd         0x2000751e     0x2  Data  Gb  hw_nvm.o [1]
hwt_eeprom_tfailures    0x20007520     0x2  Data  Gb  hw_nvm.o [1]
hwt_eeprom_tstate       0x20007658     0x1  Data  Gb  hw_nvm.o [1]
hwt_fcall_block         0x20006ef8    0x20  Data  Gb  ap_hwt.o [1]
hwt_fcall_read(unsigned short)
                        0x0808e825   0x100  Code  Gb  ap_hwt.o [1]
hwt_fcall_write(unsigned short, unsigned short)
                        0x0808e925    0xa2  Code  Gb  ap_hwt.o [1]
hwt_fio_block           0x20006eb8    0x20  Data  Gb  ap_hwt.o [1]
hwt_fio_read(unsigned short)
                        0x0808e641    0xba  Code  Gb  ap_hwt.o [1]
hwt_fio_write(unsigned short, unsigned short)
                        0x0808e6fb    0x8c  Code  Gb  ap_hwt.o [1]
hwt_io_read(unsigned short)
                        0x0808e787    0x4a  Code  Gb  ap_hwt.o [1]
hwt_io_table            0x08090c00    0x40  Data  Lc  ap_hwt.o [1]
hwt_io_write(unsigned short, unsigned short)
                        0x0808e7d1    0x54  Code  Gb  ap_hwt.o [1]
hwt_support_level       0x0807a5aa     0x2  Data  Gb  ap_hwt.o [1]
hwt_txCANMessage(unsigned short)
                        0x0808e9c7    0xac  Code  Gb  ap_hwt.o [1]
icon_Aux                0x2000768a     0x1  Data  Gb  MX_Gtwy_Control.o [1]
icon_Battery            0x20007689     0x1  Data  Gb  MX_Gtwy_Control.o [1]
icon_ECT                0x20007688     0x1  Data  Gb  MX_Gtwy_Control.o [1]
icon_Engine             0x20007687     0x1  Data  Gb  MX_Gtwy_Control.o [1]
icon_Fuel               0x200076d9     0x1  Data  Gb  MX_Gtwy_Control.o [1]
icon_General            0x20007686     0x1  Data  Gb  MX_Gtwy_Control.o [1]
icon_GlowPlug           0x20007685     0x1  Data  Gb  MX_Gtwy_Control.o [1]
icon_Hourmeter          0x20007684     0x1  Data  Gb  MX_Gtwy_Control.o [1]
icon_Hydraulic          0x20007683     0x1  Data  Gb  MX_Gtwy_Control.o [1]
icon_JobClock1          0x20007682     0x1  Data  Gb  MX_Gtwy_Control.o [1]
icon_JobClock2          0x20007681     0x1  Data  Gb  MX_Gtwy_Control.o [1]
icon_Lockout            0x20007680     0x1  Data  Gb  MX_Gtwy_Control.o [1]
icon_RPM                0x2000767f     0x1  Data  Gb  MX_Gtwy_Control.o [1]
icon_Rabbit             0x2000767c     0x1  Data  Gb  MX_Gtwy_Control.o [1]
icon_Seatbelt           0x2000767e     0x1  Data  Gb  MX_Gtwy_Control.o [1]
icon_Service            0x2000767d     0x1  Data  Gb  MX_Gtwy_Control.o [1]
idleClockUpdateTimer    0x200075f6     0x1  Data  Gb  ap_subs.o [1]
ifbk_AuxBase            0x200074ee     0x2  Data  Gb  global.o [1]
ifbk_AuxRod             0x200074ea     0x2  Data  Gb  global.o [1]
ifbk_Diverter           0x200074f4     0x2  Data  Gb  global.o [1]
ifbk_DumpValve          0x200074f0     0x2  Data  Gb  global.o [1]
ifbk_HydBypass          0x200074f2     0x2  Data  Gb  global.o [1]
ifbk_HydEnable          0x200074e6     0x2  Data  Gb  global.o [1]
ifbk_OffsetBase         0x200074ec     0x2  Data  Gb  global.o [1]
ifbk_OffsetRod          0x200074e8     0x2  Data  Gb  global.o [1]
iic1_isr                0x0807ac7b     0xc  Code  Lc  stf4_iic.o [1]
iic2_isr                0x0807ac87     0xc  Code  Lc  stf4_iic.o [1]
iic_config              0x08091228     0x8  Data  Lc  stf4_bsp_nvm.o [1]
iic_handle              0x20005d08    0x40  Data  Lc  stf4_bsp_nvm.o [1]
iic_portConfig          0x08090a4c    0x88  Data  Lc  stf4_iic.o [1]
iic_portData            0x20006fc8    0x18  Data  Lc  stf4_iic.o [1]
inDVCode                0x200075db     0x1  Data  Gb  ap_dv.o [1]
ind_AutoIdle            0x20007695     0x1  Data  Gb  MX_Gtwy_Control.o [1]
ind_Aux1                0x20007694     0x1  Data  Gb  MX_Gtwy_Control.o [1]
ind_Aux2                0x20007693     0x1  Data  Gb  MX_Gtwy_Control.o [1]
ind_KeylessEntryLock    0x200076d2     0x1  Data  Gb  MX_Gtwy_Control.o [1]
ind_KeylessEntryUnlock  0x200076d3     0x1  Data  Gb  MX_Gtwy_Control.o [1]
ind_Light1              0x200076dc     0x1  Data  Gb  MX_Gtwy_Control.o [1]
ind_Lock                0x200076da     0x1  Data  Gb  MX_Gtwy_Control.o [1]
ind_Unlock              0x200076db     0x1  Data  Gb  MX_Gtwy_Control.o [1]
initADCData             0x0807ca1d    0x92  Code  Lc  stf4_bsp_adc.o [1]
initADCs                0x0807cbdf   0x11a  Code  Lc  stf4_bsp_adc.o [1]
initCAN                 0x080798e1    0xc8  Code  Lc  stf4_bsp_can.o [1]
initDMAs                0x0807caaf   0x130  Code  Lc  stf4_bsp_adc.o [1]
initFIFOs               0x08079821    0x3c  Code  Lc  stf4_bsp_can.o [1]
initGPIO                0x0807985d    0x84  Code  Lc  stf4_bsp_can.o [1]
initGPIO                0x0807d75d    0x42  Code  Lc  stf4_bsp_fin.o [1]
initIIC                 0x0807a875    0x78  Code  Lc  stf4_iic.o [1]
initIO                  0x0807c03d    0x8e  Code  Lc  stf4_bsp_com.o [1]
initIO                  0x0807a7e3    0x92  Code  Lc  stf4_iic.o [1]
initMuxIO               0x0807ccf9    0x84  Code  Lc  stf4_bsp_adc.o [1]
initSampleTimer         0x0807d69f    0x5a  Code  Lc  stf4_bsp_fin.o [1]
initStackMonitor        0x08075215    0x3c  Code  Lc  stf4_bsp_mcu.o [1]
initTimer               0x0807cd7d    0x6e  Code  Lc  stf4_bsp_adc.o [1]
initTimer               0x0807d6f9    0x64  Code  Lc  stf4_bsp_fin.o [1]
initUART                0x0807c0cb    0x8c  Code  Lc  stf4_bsp_com.o [1]
initialize_ap_ActiveCodes()
                        0x0808a093    0x3e  Code  Gb  ap_dv.o [1]
initialize_ap_dv()      0x0808a031    0x62  Code  Gb  ap_dv.o [1]
initialize_ap_dv2()     0x0808a0d1    0x3e  Code  Gb  ap_dv.o [1]
initialize_gateway_filters()
                        0x08089c67    0xe6  Code  Gb  ap_gateway.o [1]
initialize_variables()  0x0808846d   0x21a  Code  Gb  ap_main.o [1]
inverterStatusFeedback  0x20007456     0x2  Data  Lc  ap_bservice_CANOpen.o [1]
ioSetDefaults           0x080751d3    0x42  Code  Lc  stf4_bsp_mcu.o [1]
irqh_CAN1_RX0           0x08079b01    0x10  Code  Lc  stf4_bsp_can.o [1]
irqh_CAN1_RX0::frame    0x20007100    0x10  Data  Lc  stf4_bsp_can.o [1]
irqh_CAN1_RX0::rxMessage
                        0x20007044    0x14  Data  Lc  stf4_bsp_can.o [1]
irqh_CAN1_SCE           0x08079b7d     0x2  Code  Lc  stf4_bsp_can.o [1]
irqh_CAN1_TX            0x08079a65    0x10  Code  Lc  stf4_bsp_can.o [1]
irqh_CAN1_TX::frame     0x200070e0    0x10  Data  Lc  stf4_bsp_can.o [1]
irqh_CAN1_TX::txMsg     0x2000701c    0x14  Data  Lc  stf4_bsp_can.o [1]
irqh_CAN2_RX0           0x08079b11    0x10  Code  Lc  stf4_bsp_can.o [1]
irqh_CAN2_RX0::frame    0x20007110    0x10  Data  Lc  stf4_bsp_can.o [1]
irqh_CAN2_RX0::rxMessage
                        0x20007058    0x14  Data  Lc  stf4_bsp_can.o [1]
irqh_CAN2_SCE           0x08079b81     0x2  Code  Lc  stf4_bsp_can.o [1]
irqh_CAN2_TX            0x08079a75    0x10  Code  Lc  stf4_bsp_can.o [1]
irqh_CAN2_TX::frame     0x200070f0    0x10  Data  Lc  stf4_bsp_can.o [1]
irqh_CAN2_TX::txMsg     0x20007030    0x14  Data  Lc  stf4_bsp_can.o [1]
irqh_CANn_RX0           0x08079a85    0x7a  Code  Lc  stf4_bsp_can.o [1]
irqh_CANn_TX            0x080799a9    0xbc  Code  Lc  stf4_bsp_can.o [1]
isConfigValid           0x0807a799    0x1a  Code  Lc  stf4_iic.o [1]
isrEvent                0x0807ab95    0xe6  Code  Lc  stf4_iic.o [1]
isr_com0                0x0807c1b1    0x10  Code  Lc  stf4_bsp_com.o [1]
isr_com1                0x0807c1c1    0x10  Code  Lc  stf4_bsp_com.o [1]
isr_default             0x080751cd     0x2  Code  Lc  stf4_bsp_mcu.o [1]
isr_hardFault           0x080751d1     0x2  Code  Lc  stf4_bsp_mcu.o [1]
isr_sampleTimer         0x0807d7a1    0xd8  Code  Lc  stf4_bsp_fin.o [1]
isr_sysTick             0x0807be75    0x36  Code  Lc  stf4_bsp_clock.o [1]
isr_sysTick::sTimer     0x2000044c     0x4  Data  Lc  stf4_bsp_clock.o [1]
j1939_propA_rx          0x20005a70    0x60  Data  Gb  ap_bservice.o [1]
jobClockLHPUpdateTimer  0x200074a4     0x2  Data  Gb  ap_subs.o [1]
jobClockUpdateTimer     0x200075f5     0x1  Data  Gb  ap_subs.o [1]
lamp_Engine             0x2000750a     0x2  Data  Gb  global.o [1]
ldexp                   0x080839dd          Code  Gb  ldexp.o [5]
ldexpl                  0x080839dd          Code  Gb  ldexp.o [5]
left_pad_str(unsigned char *, int, char, unsigned char)
                        0x080768ab    0x74  Code  Gb  ap_subs.o [1]
level_DisplayBacklight  0x20007691     0x1  Data  Gb  MX_Gtwy_Control.o [1]
level_IconBacklight     0x20007692     0x1  Data  Gb  MX_Gtwy_Control.o [1]
level_ShutdownEOP       0x20007558     0x2  Data  Gb  MX_Gtwy_Control.o [1]
level_StarterAutomatedDisengage
                        0x20007530     0x2  Data  Gb  MX_Gtwy_Control.o [1]
level_StarterAutomatedEngage
                        0x2000752e     0x2  Data  Gb  MX_Gtwy_Control.o [1]
level_WarningEOP        0x2000755a     0x2  Data  Gb  MX_Gtwy_Control.o [1]
lightDelayCount         0x200074a2     0x2  Data  Lc  ap_main.o [1]
limitData               0x200071dc     0x8  Data  Lc  ap_bservice_CANStd.o [1]
limitDataMsg            0x20005f28    0x30  Data  Gb  ap_bservice_CANStd.o [1]
limitData_rx_callback(hw_can_msg_t *)
                        0x0808b545    0x36  Code  Gb  ap_bservice_CANStd.o [1]
list                    0x20007280     0x4  Data  Lc  ap_bservice_CAN04.o [1]
ls_AuxBase              0x200076ed     0x1  Data  Gb  MX_Gtwy_Control.o [1]
ls_AuxRod               0x200076ee     0x1  Data  Gb  MX_Gtwy_Control.o [1]
ls_Diverter             0x200076eb     0x1  Data  Gb  MX_Gtwy_Control.o [1]
ls_DumpValve            0x200076e9     0x1  Data  Gb  MX_Gtwy_Control.o [1]
ls_HydBypass            0x200076e5     0x1  Data  Gb  MX_Gtwy_Control.o [1]
ls_HydEnable            0x200076e4     0x1  Data  Gb  MX_Gtwy_Control.o [1]
ls_OffsetBase           0x200076e0     0x1  Data  Gb  MX_Gtwy_Control.o [1]
ls_OffsetRod            0x200076e1     0x1  Data  Gb  MX_Gtwy_Control.o [1]
main                    0x08083f15    0x18  Code  Gb  main.o [1]
matlab_UpdateEEVar      0x08052099    0x14  Code  Gb  SendMsgNow.o [1]
max_stack_size          0x2000751c     0x2  Data  Gb  hw_io.o [1]
mcuInit                 0x080752d9    0x32  Code  Lc  stf4_bsp_mcu.o [1]
mcuStack                0x20007414     0x4  Data  Lc  stf4_bsp_mcu.o [1]
mcuStackMonCount        0x20007420     0x4  Data  Lc  stf4_bsp_mcu.o [1]
mcuStackSize            0x20007418     0x4  Data  Lc  stf4_bsp_mcu.o [1]
mcuStackUsed            0x2000741c     0x4  Data  Lc  stf4_bsp_mcu.o [1]
mcu_ioDefault           0x0808eb7c   0x460  Data  Lc  stf4_bsp_mcu.o [1]
memchr                  0x08083711          Code  Gb  memchr.o [6]
mirrorPtr               0x200073b4     0x4  Data  Gb  ap_eeprom.o [1]
mode_ControlChange      0x200076d0     0x1  Data  Gb  MX_Gtwy_Control.o [1]
mode_LeftControl        0x20007668     0x1  Data  Gb  MX_Gtwy_Control.o [1]
mode_RightControl       0x20007669     0x1  Data  Gb  MX_Gtwy_Control.o [1]
msCounter               0x200073fc     0x4  Data  Lc  stf4_bsp_clock.o [1]
msgAge_BJM2Left         0x20007510     0x2  Data  Gb  global.o [1]
msgAge_BJM2Right        0x20007512     0x2  Data  Gb  global.o [1]
msgAge_DeluxeG55        0x20007514     0x2  Data  Gb  global.o [1]
msgAge_ECU              0x20007504     0x2  Data  Gb  global.o [1]
msgAge_JogShuttle       0x20007516     0x2  Data  Gb  global.o [1]
msgAge_KeylessEntry     0x20007518     0x2  Data  Gb  global.o [1]
msgAge_Secondary        0x200074f8     0x2  Data  Gb  global.o [1]
msgAge_StdDisplay       0x200074f6     0x2  Data  Gb  global.o [1]
msgAge_Throttle         0x200074fc     0x2  Data  Gb  global.o [1]
msgData                 0x20006e38    0x20  Data  Gb  ap_deluxeG5.o [1]
msgRX_HydControlSettings
                        0x20006288    0x30  Data  Gb  ap_can.o [1]
msgRX_SecondaryControls
                        0x20006258    0x30  Data  Gb  ap_can.o [1]
msgTX_AuxControlMode    0x20006a30    0x28  Data  Gb  ap_can.o [1]
msgTX_PanelButtons      0x20006828    0x28  Data  Gb  ap_can.o [1]
msgTX_PanelGauge        0x20006850    0x28  Data  Gb  ap_can.o [1]
msgTX_PanelLCD          0x20006878    0x28  Data  Gb  ap_can.o [1]
msgTX_PanelLCDIcons     0x200068a0    0x28  Data  Gb  ap_can.o [1]
msgTX_PanelTellTales    0x20006800    0x28  Data  Gb  ap_can.o [1]
msgTX_PrimaryControls   0x20006990    0x28  Data  Gb  ap_can.o [1]
msg_BJM2Left            0x2000722c     0x8  Data  Gb  global.o [1]
msg_BJM2Right           0x20007234     0x8  Data  Gb  global.o [1]
msg_Counter             0x200075c5     0x1  Data  Gb  ap_deluxeG5.o [1]
msg_DeluxeButtons       0x20007224     0x8  Data  Gb  global.o [1]
msg_PanelButtonState    0x2000721c     0x8  Data  Gb  global.o [1]
msg_gateways            0x20004a40   0x1f4  Data  Gb  ap_gateway.o [1]
mul_s32_hiSR(int, int, unsigned int)
                        0x08052b0d    0x1a  Code  Gb  MX_Gtwy_Control.o [1]
mul_usu32_loSR(int, unsigned int, unsigned int)
                        0x08052927    0x24  Code  Gb  MX_Gtwy_Control.o [1]
mul_wide_s32(int, int, unsigned int *, unsigned int *)
                        0x08052a5d    0xb0  Code  Gb  MX_Gtwy_Control.o [1]
mul_wide_su32(int, unsigned int, unsigned int *, unsigned int *)
                        0x080528a7    0x80  Code  Gb  MX_Gtwy_Control.o [1]
newHour1                0x20007470     0x2  Data  Gb  ap_dv.o [1]
newHour2                0x20007472     0x2  Data  Gb  ap_dv.o [1]
newJobClockNumber       0x20007602     0x1  Data  Gb  global.o [1]
newJobClockVerification
                        0x20007605     0x1  Data  Gb  global.o [1]
newPasswordNumber       0x20007601     0x1  Data  Gb  global.o [1]
newPasswordVerification
                        0x20007604     0x1  Data  Gb  global.o [1]
newUserNameNumber       0x20007603     0x1  Data  Gb  global.o [1]
newUserNameVerification
                        0x20007606     0x1  Data  Gb  global.o [1]
newlyBootedDDP          0x200075fd     0x1  Data  Gb  global.o [1]
number_to_str(unsigned int, unsigned char *, unsigned char)
                        0x0807691f    0xc2  Code  Gb  ap_subs.o [1]
nvicPriority            0x080905fc   0x118  Data  Lc  stf4_bsp_mcu.o [1]
nvm_ecuid               0x20007278     0x8  Data  Gb  nvm_ecuid.o [1]
nvm_ecuid_t::initialize()
                        0x080835f5    0x28  Code  Gb  nvm_ecuid.o [1]
nvm_read                0x0807b76b    0x46  Code  Lc  stf4_bsp_nvm.o [1]
nvm_write               0x0807b7b1    0x6a  Code  Lc  stf4_bsp_nvm.o [1]
obtainedCurrentUser     0x20007608     0x1  Data  Gb  global.o [1]
outputSelect_EOP        0x200076f0     0x1  Data  Gb  MX_Gtwy_Control.o [1]
outputSelect_HOT        0x200076ef     0x1  Data  Gb  MX_Gtwy_Control.o [1]
output_pair_ClosedLoop_Disable(short *, rtB_output_pair_ClosedLoop_MX_G *, rtDW_output_pair_ClosedLoop_MX_ *)
                        0x08050823    0x18  Code  Gb  mod_Library.o [1]
output_single_OpenLoop_Disable(rtB_output_single_OpenLoop_MX_G *, rtDW_output_single_OpenLoop_MX_ *)
                        0x08051ee7    0x18  Code  Gb  mod_Library.o [1]
p_ecu_SOFT              0x20000444     0x4  Data  Gb  ap_dv.o [1]
p_sw_title              0x20000440     0x4  Data  Gb  ap_bservice.o [1]
passwords_received      0x200075e6     0x1  Data  Gb  ap_keylessentry.o [1]
percent_Derate          0x20007659     0x1  Data  Gb  MX_Gtwy_Control.o [1]
percent_Throttle        0x2000753c     0x2  Data  Gb  MX_Gtwy_Control.o [1]
pos_ThrottlePrimary     0x2000753a     0x2  Data  Gb  MX_Gtwy_Control.o [1]
pos_ThrottlePrimary_In  0x20007536     0x2  Data  Gb  MX_Gtwy_Control.o [1]
position_AuxPot         0x2000756c     0x2  Data  Gb  MX_Gtwy_Control.o [1]
position_LeftPot        0x20007522     0x2  Data  Gb  MX_Gtwy_Control.o [1]
position_OffsetPot      0x20007540     0x2  Data  Gb  MX_Gtwy_Control.o [1]
position_RightPot       0x20007560     0x2  Data  Gb  MX_Gtwy_Control.o [1]
powerData               0x20007160     0xc  Data  Lc  ap_bservice_CANStd.o [1]
powerDataMsg            0x20005f58    0x30  Data  Gb  ap_bservice_CANStd.o [1]
powerData_rx_callback(hw_can_msg_t *)
                        0x0808b57d    0x2a  Code  Gb  ap_bservice_CANStd.o [1]
powerDown()             0x08088a49   0x178  Code  Gb  ap_main.o [1]
powerDown()::firstTimeThruPowerDown
                        0x200005e5     0x1  Data  Lc  ap_main.o [1]
powerDown()::powerDownAttempt
                        0x200075f3     0x1  Data  Lc  ap_main.o [1]
powerDown()::reset_recovery
                        0x200075f2     0x1  Data  Lc  ap_main.o [1]
powerDownTimer          0x200075ed     0x1  Data  Gb  ap_main.o [1]
powerUp()               0x080888c7   0x182  Code  Gb  ap_main.o [1]
powerUpTimer            0x200075fc     0x1  Data  Gb  global.o [1]
prescalerTable          0x08091034    0x18  Data  Lc  stf4_timer.o [1]
pressure_TorqueLimiter  0x200074ae     0x2  Data  Gb  global.o [1]
prevControl             0x200071f4     0x8  Data  Lc  ap_bservice_CANStd.o [1]
prevCycleTime           0x20007458     0x2  Data  Lc  ap_bservice_CANOpen.o [1]
prevTPDO1               0x20007154     0xc  Data  Lc  ap_bservice_CANOpen.o [1]
prevTPDO2               0x20007288     0x4  Data  Lc  ap_bservice_CANOpen.o [1]
previousAuxBaseActive   0x200075b5     0x1  Data  Gb  ap_can.o [1]
previousAuxBaseState    0x200075b4     0x1  Data  Gb  ap_can.o [1]
previousAuxEnable       0x200075b3     0x1  Data  Gb  ap_can.o [1]
previousAuxRodActive    0x200075b7     0x1  Data  Gb  ap_can.o [1]
previousAuxRodState     0x200075b6     0x1  Data  Gb  ap_can.o [1]
previousClock100ms      0x2000749c     0x2  Data  Lc  ap_main.o [1]
previousClock1s         0x20007494     0x2  Data  Lc  ap_main.o [1]
previousClock200ms      0x2000749a     0x2  Data  Lc  ap_main.o [1]
previousClock20ms       0x200074a0     0x2  Data  Lc  ap_main.o [1]
previousClock2s         0x20007496     0x2  Data  Lc  ap_main.o [1]
previousClock500ms      0x20007498     0x2  Data  Lc  ap_main.o [1]
previousClock50ms       0x2000749e     0x2  Data  Lc  ap_main.o [1]
previousClock5s         0x20007492     0x2  Data  Lc  ap_main.o [1]
processRxFrames(uint8_t)::frame
                        0x200070c0    0x10  Data  Lc  hw_can.o [1]
processRxFrames(uint8_t)::msg
                        0x200070d0    0x10  Data  Lc  hw_can.o [1]
process_DeluxeG5_TP_cmd(J1939_msg_t const *)
                        0x08087b83   0x12a  Code  Gb  ap_deluxeG5.o [1]
process_Engine_TP_cmd(J1939_msg_t const *)
                        0x0808c04d   0x28c  Code  Gb  ap_engine.o [1]
process_bservice_prog_cmd(hw_can_msg_t const *, hw_can_msg_t *)
                        0x0807e431    0xfe  Code  Gb  ap_bservice_prog.o [1]
psi_LoadSense           0x20007542     0x2  Data  Gb  MX_Gtwy_Control.o [1]
pwd_Keyless             0x20007214     0x8  Data  Gb  global.o [1]
pwd_Position            0x20007660     0x1  Data  Gb  MX_Gtwy_Control.o [1]
pwmConfig               0x20000470   0x154  Data  Lc  stf4_bsp_pwm.o [1]
pwm_apb1Clocks          0x08091240     0x4  Data  Lc  stf4_bsp_pwm.o [1]
pwm_apb2Clocks          0x08091244     0x4  Data  Lc  stf4_bsp_pwm.o [1]
pwm_timer               0x08090f44    0x20  Data  Lc  stf4_bsp_pwm.o [1]
ramVector               0x20007444     0x4  Data  Lc  stf4_vectors.o [1]
rand                    0x08083475    0x96  Code  Gb  rand.o [3]
readByte                0x0807aafd    0x98  Code  Lc  stf4_iic.o [1]
remVectorLength         0x20007448     0x4  Data  Lc  stf4_vectors.o [1]
requestedRatio          0x20005c84    0x44  Data  Lc  stf4_bsp_pwm.o [1]
resetPort               0x0807a8ed    0x2e  Code  Lc  stf4_iic.o [1]
resetRequested          0x200076f9     0x1  Data  Lc  stf4_bsp_mcu.o [1]
resetTickCount          0x20007410     0x4  Data  Lc  stf4_bsp_mcu.o [1]
reset_ServiceClock      0x200075f1     0x1  Data  Gb  ap_main.o [1]
rm_AuxPot               0x2000756e     0x2  Data  Gb  MX_Gtwy_Control.o [1]
rm_Console              0x2000756a     0x2  Data  Gb  MX_Gtwy_Control.o [1]
rm_ECT                  0x20007568     0x2  Data  Gb  MX_Gtwy_Control.o [1]
rm_EOP                  0x2000755c     0x2  Data  Gb  MX_Gtwy_Control.o [1]
rm_FuelLevel            0x2000754c     0x2  Data  Gb  MX_Gtwy_Control.o [1]
rm_HOT                  0x2000754a     0x2  Data  Gb  MX_Gtwy_Control.o [1]
rm_LeftPot              0x20007562     0x2  Data  Gb  MX_Gtwy_Control.o [1]
rm_OffsetPot            0x2000753e     0x2  Data  Gb  MX_Gtwy_Control.o [1]
rm_RightPot             0x2000755e     0x2  Data  Gb  MX_Gtwy_Control.o [1]
rm_ThrottlePrimary      0x20007538     0x2  Data  Gb  MX_Gtwy_Control.o [1]
rpm_Derate              0x2000752a     0x2  Data  Gb  MX_Gtwy_Control.o [1]
rtcReady                0x200076fb     0x1  Data  Lc  stf4_bsp_rtc.o [1]
rtcUpdate               0x0807c337    0x54  Code  Lc  stf4_bsp_rtc.o [1]
rtcUpdate{1}{2}::RTC_TimeStruct
                        0x20007438     0x4  Data  Lc  stf4_bsp_rtc.o [1]
runStackMonitor         0x08075251    0x88  Code  Lc  stf4_bsp_mcu.o [1]
runStackMonitor::stackData
                        0x20007430     0x4  Data  Lc  stf4_bsp_mcu.o [1]
runTest                 0x0807b8f1    0x5a  Code  Lc  stf4_bsp_nvm.o [1]
runTest_0               0x0807b94b   0x1ea  Code  Lc  stf4_bsp_nvm.o [1]
runTest_0::testPattern  0x20000450    0x20  Data  Lc  stf4_bsp_nvm.o [1]
rxBufferDataPort0       0x20003aa0   0x300  Data  Lc  stf4_bsp_can.o [1]
rxBufferDataPort1       0x200040a0   0x300  Data  Lc  stf4_bsp_can.o [1]
rx_DeluxeAuthenticationG55
                        0x200064c8    0x30  Data  Gb  ap_deluxeG55.o [1]
rx_DeluxeKeypad         0x200063d8    0x30  Data  Gb  ap_deluxeG5.o [1]
rx_DeluxeProg           0x20006408    0x30  Data  Gb  ap_deluxeG5.o [1]
rx_DeluxeStatus         0x200062b8    0x30  Data  Gb  ap_deluxeG5.o [1]
rx_DeluxeStatusG55      0x20006438    0x30  Data  Gb  ap_deluxeG55.o [1]
rx_JobClock             0x200062e8    0x30  Data  Gb  ap_deluxeG5.o [1]
rx_JogButtonState       0x20006498    0x30  Data  Gb  ap_deluxeG55.o [1]
rx_OperatorSettings     0x20006468    0x30  Data  Gb  ap_deluxeG55.o [1]
rx_PwdData              0x20006378    0x30  Data  Gb  ap_deluxeG5.o [1]
rx_ServiceData          0x20006348    0x30  Data  Gb  ap_deluxeG5.o [1]
rx_UserData             0x20006318    0x30  Data  Gb  ap_deluxeG5.o [1]
rx_UserName             0x200063a8    0x30  Data  Gb  ap_deluxeG5.o [1]
sCounter                0x20007404     0x4  Data  Lc  stf4_bsp_clock.o [1]
sampelTimerConfig       0x08091118    0x10  Data  Lc  stf4_bsp_fin.o [1]
scalbln                 0x080839dd          Code  Gb  ldexp.o [5]
scalblnl                0x080839dd          Code  Gb  ldexp.o [5]
scalbn                  0x080839dd          Code  Gb  ldexp.o [5]
scalbnl                 0x080839dd          Code  Gb  ldexp.o [5]
scale                   0x08082c4b    0x46  Code  Lc  xprintffull_nomb.o [3]
schd                    0x20006fe0    0x14  Data  Lc  ap.o [1]
schdStats               0x20006738    0x28  Data  Lc  ap.o [1]
scrn_DeluxePwdFail      0x20007651     0x1  Data  Gb  global.o [1]
sdata                   0x2000743c     0x4  Data  Lc  stf4_bsp_sdata.o [1]
sdataSize               0x20007440     0x4  Data  Lc  stf4_bsp_sdata.o [1]
sec_hand                0x2000744c     0x4  Data  Lc  xfail_s.o [3]
sendChallenge()::msg_type
                        0x200005e2     0x1  Data  Lc  ap_deluxeG55.o [1]
sendControlMsg()        0x0808b49d    0x40  Code  Gb  ap_bservice_CANStd.o [1]
sendControlRead         0x0807aaa1    0x5c  Code  Lc  stf4_iic.o [1]
sendControlWrite        0x0807a91b    0x3a  Code  Lc  stf4_iic.o [1]
sendFirstJobClockCmd    0x200075f7     0x1  Data  Gb  ap_subs.o [1]
sendMsg(hw_can_msg_t *)
                        0x0808b237     0xe  Code  Gb  ap_bservice_CANOpen.o [1]
sendNTMMsg(unsigned char, unsigned char)
                        0x0808af4d    0x56  Code  Gb  ap_bservice_CANOpen.o [1]
sendNTMSyncMsg()        0x0808afa3    0x1a  Code  Gb  ap_bservice_CANOpen.o [1]
sendSecondStart         0x0807aa69    0x38  Code  Lc  stf4_iic.o [1]
sendTPDO1Msg(unsigned char)
                        0x0808ad83   0x10a  Code  Gb  ap_bservice_CANOpen.o [1]
sendTPDO2Msg(unsigned char)
                        0x0808ae8d    0xc0  Code  Gb  ap_bservice_CANOpen.o [1]
send_DeluxeG5_StartUpData()
                        0x080844f9   0xb06  Code  Gb  ap_deluxeG5.o [1]
send_DeluxeG5_StartUpData()::flag_TPSent
                        0x200075c6     0x1  Data  Lc  ap_deluxeG5.o [1]
send_DeluxeG5_StartUpData()::wait_Count
                        0x2000746a     0x2  Data  Lc  ap_deluxeG5.o [1]
serviceType             0x20007478     0x2  Data  Gb  ap_dv.o [1]
setMuxSelects           0x0807cdeb    0x5a  Code  Lc  stf4_bsp_adc.o [1]
setWriteFlags           0x0807b885    0x6c  Code  Lc  stf4_bsp_nvm.o [1]
set_ServiceClock        0x200075ee     0x1  Data  Lc  ap_main.o [1]
severityInformation     0x08090de8    0x24  Data  Lc  ap_bservice_CAN04.o [1]
size                    0x200075a7     0x1  Data  Lc  ap_bservice_CAN04.o [1]
snprintf                0x0807e14d    0x44  Code  Gb  snprintf.o [3]
srand                   0x0808350b     0xa  Code  Gb  rand.o [3]
start_FuelConsumption   0x200073d4     0x4  Data  Gb  global.o [1]
start_time              0x20007450     0x2  Data  Lc  ap_bservice_CAN04.o [1]
start_timeLCD           0x20007452     0x2  Data  Gb  ap_bservice_CAN04.o [1]
state_ACD_CAN           0x20007640     0x1  Data  Gb  global.o [1]
state_AirFilter         0x200076cf     0x1  Data  Gb  MX_Gtwy_Control.o [1]
state_Alternator        0x200076b3     0x1  Data  Gb  MX_Gtwy_Control.o [1]
state_AutoIdleEnable    0x2000767b     0x1  Data  Gb  MX_Gtwy_Control.o [1]
state_AuxBase           0x200076b0     0x1  Data  Gb  MX_Gtwy_Control.o [1]
state_AuxEnable         0x20007673     0x1  Data  Gb  MX_Gtwy_Control.o [1]
state_AuxPot            0x200076cc     0x1  Data  Gb  MX_Gtwy_Control.o [1]
state_AuxRelease        0x20007678     0x1  Data  Gb  MX_Gtwy_Control.o [1]
state_AuxRod            0x200076b1     0x1  Data  Gb  MX_Gtwy_Control.o [1]
state_Buzzer            0x200075a8     0x1  Data  Gb  ap_bservice_CAN04.o [1]
state_CANThrottleCalDiag
                        0x20007672     0x1  Data  Gb  MX_Gtwy_Control.o [1]
state_CommDeluxeG55     0x20007670     0x1  Data  Gb  MX_Gtwy_Control.o [1]
state_CommECU           0x2000765a     0x1  Data  Gb  MX_Gtwy_Control.o [1]
state_CommJogShuttle    0x2000766f     0x1  Data  Gb  MX_Gtwy_Control.o [1]
state_CommKeylessEntry  0x20007671     0x1  Data  Gb  MX_Gtwy_Control.o [1]
state_CommSecondary     0x2000766c     0x1  Data  Gb  MX_Gtwy_Control.o [1]
state_CommStdPanel      0x2000766e     0x1  Data  Gb  MX_Gtwy_Control.o [1]
state_CommThrottle      0x2000766d     0x1  Data  Gb  MX_Gtwy_Control.o [1]
state_Console           0x200076ca     0x1  Data  Gb  MX_Gtwy_Control.o [1]
state_ConsoleTest       0x2000764d     0x1  Data  Gb  global.o [1]
state_ConstantData      0x2000764b     0x1  Data  Gb  global.o [1]
state_DeluxeG5          0x20007639     0x1  Data  Gb  global.o [1]
state_DeluxeG55         0x20007648     0x1  Data  Gb  global.o [1]
state_DepthBeep         0x2000762b     0x1  Data  Gb  global.o [1]
state_Detent            0x20007674     0x1  Data  Gb  MX_Gtwy_Control.o [1]
state_DetentEnable      0x20007676     0x1  Data  Gb  MX_Gtwy_Control.o [1]
state_Diverter          0x200076af     0x1  Data  Gb  MX_Gtwy_Control.o [1]
state_DumpValve         0x200076ae     0x1  Data  Gb  MX_Gtwy_Control.o [1]
state_ECT               0x200076c9     0x1  Data  Gb  MX_Gtwy_Control.o [1]
state_ECUHold           0x200076aa     0x1  Data  Gb  MX_Gtwy_Control.o [1]
state_EOP               0x200076c6     0x1  Data  Gb  MX_Gtwy_Control.o [1]
state_EOT               0x200076c2     0x1  Data  Gb  MX_Gtwy_Control.o [1]
state_EcoMode           0x200076c5     0x1  Data  Gb  MX_Gtwy_Control.o [1]
state_Engine            0x20007663     0x1  Data  Gb  MX_Gtwy_Control.o [1]
state_EngineSpeed       0x200076c4     0x1  Data  Gb  MX_Gtwy_Control.o [1]
state_EngineSpeedDerate
                        0x2000766a     0x1  Data  Gb  MX_Gtwy_Control.o [1]
state_EngineStart       0x200076c1     0x1  Data  Gb  MX_Gtwy_Control.o [1]
state_FuelLevel         0x200076c0     0x1  Data  Gb  MX_Gtwy_Control.o [1]
state_FuelPriOutput     0x200076ac     0x1  Data  Gb  MX_Gtwy_Control.o [1]
state_FuelPriRelay      0x200076ad     0x1  Data  Gb  MX_Gtwy_Control.o [1]
state_FuelSec           0x200076a9     0x1  Data  Gb  MX_Gtwy_Control.o [1]
state_FuelTemp          0x200076bf     0x1  Data  Gb  MX_Gtwy_Control.o [1]
state_GlowPlugOutput    0x200076a5     0x1  Data  Gb  MX_Gtwy_Control.o [1]
state_GlowPlugRelay     0x200076a6     0x1  Data  Gb  MX_Gtwy_Control.o [1]
state_HCFilter1         0x200076be     0x1  Data  Gb  MX_Gtwy_Control.o [1]
state_HOT               0x200076bd     0x1  Data  Gb  MX_Gtwy_Control.o [1]
state_HPMatch           0x2000766b     0x1  Data  Gb  MX_Gtwy_Control.o [1]
state_HVACOutput        0x200076ab     0x1  Data  Gb  MX_Gtwy_Control.o [1]
state_HydBypass         0x200076a4     0x1  Data  Gb  MX_Gtwy_Control.o [1]
state_HydEnable         0x200076a3     0x1  Data  Gb  MX_Gtwy_Control.o [1]
state_HydExchange       0x200076a2     0x1  Data  Gb  MX_Gtwy_Control.o [1]
state_Idle              0x2000767a     0x1  Data  Gb  MX_Gtwy_Control.o [1]
state_InfoButton        0x2000768c     0x1  Data  Gb  MX_Gtwy_Control.o [1]
state_InfoPrimary       0x2000768b     0x1  Data  Gb  MX_Gtwy_Control.o [1]
state_InfoSecondary     0x2000768d     0x1  Data  Gb  MX_Gtwy_Control.o [1]
state_Inverter          0x20007655     0x1  Data  Gb  global.o [1]
state_KSLock            0x2000765e     0x1  Data  Gb  MX_Gtwy_Control.o [1]
state_KSPassword        0x2000765f     0x1  Data  Gb  MX_Gtwy_Control.o [1]
state_Key               0x200076bc     0x1  Data  Gb  MX_Gtwy_Control.o [1]
state_KeylessEntryLock  0x20007654     0x1  Data  Gb  global.o [1]
state_KeylessEntryPassword
                        0x20007653     0x1  Data  Gb  global.o [1]
state_KeylessEntryPowerHold
                        0x20007662     0x1  Data  Gb  MX_Gtwy_Control.o [1]
state_KeylessPanel      0x2000763e     0x1  Data  Gb  global.o [1]
state_LeftButton        0x2000768f     0x1  Data  Gb  MX_Gtwy_Control.o [1]
state_LeftPot           0x200076c8     0x1  Data  Gb  MX_Gtwy_Control.o [1]
state_LightsOutput      0x200076a0     0x1  Data  Gb  MX_Gtwy_Control.o [1]
state_LightsRelay       0x200076a1     0x1  Data  Gb  MX_Gtwy_Control.o [1]
state_LoadMoment        0x2000765b     0x1  Data  Gb  MX_Gtwy_Control.o [1]
state_LoadSense         0x200076ba     0x1  Data  Gb  MX_Gtwy_Control.o [1]
state_MachineLock       0x2000765d     0x1  Data  Gb  MX_Gtwy_Control.o [1]
state_OffsetBase        0x2000769e     0x1  Data  Gb  MX_Gtwy_Control.o [1]
state_OffsetPot         0x200076b8     0x1  Data  Gb  MX_Gtwy_Control.o [1]
state_OffsetRod         0x2000769f     0x1  Data  Gb  MX_Gtwy_Control.o [1]
state_PBValveOutput     0x2000769c     0x1  Data  Gb  MX_Gtwy_Control.o [1]
state_PBValveRelay      0x2000769d     0x1  Data  Gb  MX_Gtwy_Control.o [1]
state_PanelButtons      0x200076cb     0x1  Data  Gb  MX_Gtwy_Control.o [1]
state_Phone             0x200075cd     0x1  Data  Lc  ap_deluxeG55.o [1]
state_RightButton       0x2000768e     0x1  Data  Gb  MX_Gtwy_Control.o [1]
state_RightPot          0x200076c7     0x1  Data  Gb  MX_Gtwy_Control.o [1]
state_ST_CAN            0x2000762f     0x1  Data  Gb  global.o [1]
state_SensorSupply1     0x200076b7     0x1  Data  Gb  MX_Gtwy_Control.o [1]
state_SensorSupply2     0x200076b6     0x1  Data  Gb  MX_Gtwy_Control.o [1]
state_ServiceClock      0x2000764e     0x1  Data  Gb  global.o [1]
state_StarterOutput     0x2000769a     0x1  Data  Gb  MX_Gtwy_Control.o [1]
state_StarterRelay      0x2000769b     0x1  Data  Gb  MX_Gtwy_Control.o [1]
state_SwitchedPwrOutput
                        0x20007698     0x1  Data  Gb  MX_Gtwy_Control.o [1]
state_SwitchedPwrRelay  0x20007699     0x1  Data  Gb  MX_Gtwy_Control.o [1]
state_System            0x2000764f     0x1  Data  Gb  global.o [1]
state_TC                0x2000765c     0x1  Data  Gb  MX_Gtwy_Control.o [1]
state_ThrottlePrimary   0x200076b4     0x1  Data  Gb  MX_Gtwy_Control.o [1]
state_TurboPrime        0x20007664     0x1  Data  Gb  MX_Gtwy_Control.o [1]
state_TwoSpeed          0x20007696     0x1  Data  Gb  MX_Gtwy_Control.o [1]
state_TwoSpeedIcon      0x20007697     0x1  Data  Gb  MX_Gtwy_Control.o [1]
state_VBattery          0x200076b2     0x1  Data  Gb  MX_Gtwy_Control.o [1]
state_ecuECT            0x20007633     0x1  Data  Gb  global.o [1]
state_ecuEOP            0x20007634     0x1  Data  Gb  global.o [1]
status_LED_t::SetFlashRate(unsigned short)
                        0x0807e351     0x2  Code  Gb  hw_mcu.o [1]
status_SrvcClockDisplay
                        0x200075fa     0x1  Data  Gb  ap_subs.o [1]
stf4_iic_getOp          0x0807a71f    0x24  Code  Gb  stf4_iic.o [1]
stf4_iic_getOpTime      0x0807a743    0x20  Code  Gb  stf4_iic.o [1]
stf4_iic_getStatus      0x0807a70f    0x10  Code  Gb  stf4_iic.o [1]
stf4_iic_init           0x0807a5c5    0x5c  Code  Gb  stf4_iic.o [1]
stf4_iic_initHandle     0x0807a621    0x28  Code  Gb  stf4_iic.o [1]
stf4_iic_reset          0x0807a763    0x36  Code  Gb  stf4_iic.o [1]
stf4_iic_startOp        0x0807a649    0xc6  Code  Gb  stf4_iic.o [1]
stf4_timer_clockCmd     0x0807a581    0x2a  Code  Gb  stf4_timer.o [1]
stf4_timer_getClockFreq
                        0x0807a45b    0x3a  Code  Gb  stf4_timer.o [1]
stf4_timer_getFreq      0x0807a495    0x24  Code  Gb  stf4_timer.o [1]
stf4_timer_getPeriod    0x0807a4b9     0x4  Code  Gb  stf4_timer.o [1]
stf4_timer_init         0x0807a451     0xa  Code  Gb  stf4_timer.o [1]
stf4_timer_isAPB2Timer  0x0807a537    0x2c  Code  Gb  stf4_timer.o [1]
stf4_timer_setFreq16    0x0807a4bd    0x7a  Code  Gb  stf4_timer.o [1]
strchr                  0x08083681          Code  Gb  strchr.o [6]
strlen                  0x080836d9          Code  Gb  strlen.o [6]
sw_ed_number            0x0808367e     0x2  Data  Gb  ap_version.o [1]
sw_title                0x08090c80    0x34  Data  Gb  ap_version.o [1]
sw_type                 0x0808390a     0x1  Data  Gb  ap_version.o [1]
sw_version_major        0x0808390b     0x1  Data  Gb  ap_version.o [1]
sw_version_minor        0x080839aa     0x1  Data  Gb  ap_version.o [1]
systemBusy              0x200076fa     0x1  Data  Gb  stf4_bsp_mcu.o [1]
targetSpeed             0x20007528     0x2  Data  Gb  MX_Gtwy_Control.o [1]
taskWatchdogFlags       0x20007428     0x4  Data  Lc  stf4_bsp_mcu.o [1]
taskWatchdogMask        0x20007424     0x4  Data  Lc  stf4_bsp_mcu.o [1]
test2                   0x200075a2     0x2  Data  Gb  SendMsgNow.o [1]
testOut                 0x20007270     0x8  Data  Gb  MX_Gtwy_Control.o [1]
time_StarterAutomated   0x20007532     0x2  Data  Gb  MX_Gtwy_Control.o [1]
timerCompare            0x20005c40    0x44  Data  Lc  stf4_bsp_pwm.o [1]
timer_FuelResolution    0x200076a7     0x1  Data  Gb  MX_Gtwy_Control.o [1]
timer_irqHandler        0x0807ced9    0xe2  Code  Lc  stf4_bsp_adc.o [1]
torque_Derate           0x2000752c     0x2  Data  Gb  MX_Gtwy_Control.o [1]
ts_base_address         0x08075b52     0x2  Data  Gb  ap_bservice.o [1]
txBufferDataPort0       0x200037a0   0x300  Data  Lc  stf4_bsp_can.o [1]
txBufferDataPort1       0x20003da0   0x300  Data  Lc  stf4_bsp_can.o [1]
tx_AuxHydStatus         0x20006cb0    0x28  Data  Gb  ap_deluxeG55.o [1]
tx_DeluxeMainStatus     0x20006c60    0x28  Data  Gb  ap_deluxeG55.o [1]
tx_JobClock             0x20006bc0    0x28  Data  Gb  ap_deluxeG5.o [1]
tx_MainStatus           0x20006b98    0x28  Data  Gb  ap_deluxeG5.o [1]
tx_ServiceData          0x20006c10    0x28  Data  Gb  ap_deluxeG5.o [1]
tx_UserInfo             0x20006be8    0x28  Data  Gb  ap_deluxeG5.o [1]
tx_VitalData            0x20006c38    0x28  Data  Gb  ap_deluxeG5.o [1]
tx_VitalDataG55         0x20006c88    0x28  Data  Gb  ap_deluxeG55.o [1]
uartISR                 0x0807c157    0x5a  Code  Lc  stf4_bsp_com.o [1]
uart_config             0x0809091c    0xa0  Data  Lc  stf4_bsp_com.o [1]
updateCounts            0x0807bdb7    0x58  Code  Lc  stf4_bsp_clock.o [1]
updateCounts::lastTimerCounts
                        0x20000448     0x4  Data  Lc  stf4_bsp_clock.o [1]
updateCounts::usTimer   0x20007408     0x4  Data  Lc  stf4_bsp_clock.o [1]
updateErrorList()       0x08078605   0x412  Code  Gb  ap_bservice_CAN04.o [1]
updateErrorList()::i    0x200075ad     0x1  Data  Lc  ap_bservice_CAN04.o [1]
update_AuxControlMode_TX(hw_can_msg_t *)
                        0x08059bf5    0x82  Code  Gb  ap_can.o [1]
update_CAN01sTX(hw_can_msg_t *)
                        0x08057b61    0x76  Code  Gb  ap_can.o [1]
update_CAN02sTX(hw_can_msg_t *)
                        0x08057c19    0x8a  Code  Gb  ap_can.o [1]
update_CAN03sTX(hw_can_msg_t *)
                        0x08058585    0xc8  Code  Gb  ap_can.o [1]
update_CAN05sTX(hw_can_msg_t *)
                        0x08057ce5    0x52  Code  Gb  ap_can.o [1]
update_CAN06sTX(hw_can_msg_t *)
                        0x08057d79    0x24  Code  Gb  ap_can.o [1]
update_CAN20sTX(hw_can_msg_t *)
                        0x08057eed    0x28  Code  Gb  ap_can.o [1]
update_CAN21sTX(hw_can_msg_t *)
                        0x08057f5f    0x44  Code  Gb  ap_can.o [1]
update_CCVS_TX(hw_can_msg_t *)
                        0x0808b8dd    0x3a  Code  Gb  ap_engine.o [1]
update_DD_CAN0_TX(hw_can_msg_t *)
                        0x08058407    0x16  Code  Gb  ap_can.o [1]
update_DD_CAN4_TX(hw_can_msg_t *)
                        0x0808b885    0x16  Code  Gb  ap_engine.o [1]
update_EEC1_TX(hw_can_msg_t *)
                        0x08058155    0x52  Code  Gb  ap_can.o [1]
update_EEC2_J1939_CAN0_TX(hw_can_msg_t *)
                        0x08058387    0x3e  Code  Gb  ap_can.o [1]
update_EEC2_J1939_CAN4_TX(hw_can_msg_t *)
                        0x0808b72d    0x3e  Code  Gb  ap_engine.o [1]
update_EFL_P1_TX(hw_can_msg_t *)
                        0x080582d3    0x72  Code  Gb  ap_can.o [1]
update_ET1_TX(hw_can_msg_t *)
                        0x08058257    0x3a  Code  Gb  ap_can.o [1]
update_HWJ1939AcknowledgeMsg_tx(hw_can_msg_t *)
                        0x0805a593    0x76  Code  Gb  ap_can.o [1]
update_HWJ1939BICSControl_tx(hw_can_msg_t *)
                        0x08059e77    0x90  Code  Gb  ap_can.o [1]
update_HWJ1939EngineHoursTX(hw_can_msg_t *)
                        0x08058771    0x56  Code  Gb  ap_can.o [1]
update_HWJ1939MachineConfigMsg_tx(hw_can_msg_t *)
                        0x0805a661    0x6e  Code  Gb  ap_can.o [1]
update_JobClock_tx(hw_can_msg_t *)
                        0x0808585f   0x110  Code  Gb  ap_deluxeG5.o [1]
update_KeylessEntryTX(hw_can_msg_t *)
                        0x0808d867    0x6e  Code  Gb  ap_keylessentry.o [1]
update_KeypadTX(hw_can_msg_t *)
                        0x0808d49d    0xa6  Code  Gb  ap_keylessstart.o [1]
update_MainStatus_tx(hw_can_msg_t *)
                        0x0808525d   0x1fe  Code  Gb  ap_deluxeG5.o [1]
update_PanelButtonsTX(hw_can_msg_t *)
                        0x08058b45   0x138  Code  Gb  ap_can.o [1]
update_PanelGaugeTX(hw_can_msg_t *)
                        0x08058ce9    0xc2  Code  Gb  ap_can.o [1]
update_PanelLCDIconsTX(hw_can_msg_t *)
                        0x0805978d   0x1d4  Code  Gb  ap_can.o [1]
update_PanelLCDTX(hw_can_msg_t *)
                        0x08058eed   0x82c  Code  Gb  ap_can.o [1]
update_PanelLCDTX(hw_can_msg_t *)::flag_Aux
                        0x200075bb     0x1  Data  Lc  ap_can.o [1]
update_PanelLCDTX(hw_can_msg_t *)::flag_Reset
                        0x200075ba     0x1  Data  Lc  ap_can.o [1]
update_PanelTellTalesTX(hw_can_msg_t *)
                        0x080588d1   0x1fc  Code  Gb  ap_can.o [1]
update_PrimaryControls_TX(hw_can_msg_t *)
                        0x08059a87    0x7e  Code  Gb  ap_can.o [1]
update_SMVCU_CAN4_TX(hw_can_msg_t *)
                        0x0808b7ad    0x96  Code  Gb  ap_engine.o [1]
update_SMVCU_CAN4_TX(hw_can_msg_t *)::counter
                        0x200075e5     0x1  Data  Lc  ap_engine.o [1]
update_ServiceData(unsigned char)
                        0x080843e5   0x114  Code  Gb  ap_deluxeG5.o [1]
update_ServiceData_tx(hw_can_msg_t *)
                        0x0808623d    0xc0  Code  Gb  ap_deluxeG5.o [1]
update_TFAC_TX(hw_can_msg_t *)
                        0x080599b5    0x82  Code  Gb  ap_can.o [1]
update_UserID           0x200075c3     0x1  Data  Gb  ap_deluxeG5.o [1]
update_UserInfo_tx(hw_can_msg_t *)
                        0x080859c9   0x14c  Code  Gb  ap_deluxeG5.o [1]
update_UserInfo_tx(hw_can_msg_t *)::index
                        0x200075c7     0x1  Data  Lc  ap_deluxeG5.o [1]
update_VEP_TX(hw_can_msg_t *)
                        0x080581e9    0x2c  Code  Gb  ap_can.o [1]
update_VitalDataG55_tx(hw_can_msg_t *)
                        0x0808c6e5   0x3b2  Code  Gb  ap_deluxeG55.o [1]
update_VitalDataG55_tx(hw_can_msg_t *)::count_Vital
                        0x200075d0     0x1  Data  Lc  ap_deluxeG55.o [1]
update_VitalData_tx(hw_can_msg_t *)
                        0x08085ba1   0x394  Code  Gb  ap_deluxeG5.o [1]
usCounter               0x20007400     0x4  Data  Lc  stf4_bsp_clock.o [1]
user_KeylessEntry       0x20007611     0x1  Data  Gb  global.o [1]
vectors_initRamVectors  0x0807a3a5    0x60  Code  Gb  stf4_vectors.o [1]
vectors_setRamVector    0x0807a405    0x2a  Code  Gb  stf4_vectors.o [1]
vectors_switchToRam     0x0807a42f    0x16  Code  Gb  stf4_vectors.o [1]
vitalDisplay            0x20007090    0x10  Data  Gb  ap_deluxeG5.o [1]
vitalDisplayG55         0x080910e8    0x10  Data  Lc  ap_deluxeG55.o [1]
volts_LoadMoment        0x200076bb     0x1  Data  Gb  MX_Gtwy_Control.o [1]
volts_LoadSense         0x200076b9     0x1  Data  Gb  MX_Gtwy_Control.o [1]
vsnprintf               0x0807e191    0x3c  Code  Gb  vsnprint.o [3]
warningError            0x200071cc     0x8  Data  Lc  ap_bservice_CANStd.o [1]
warningErrorMsg         0x20005ec8    0x30  Data  Gb  ap_bservice_CANStd.o [1]
warningError_rx_callback(hw_can_msg_t *)
                        0x0808b4fd     0xe  Code  Gb  ap_bservice_CANStd.o [1]
wcPinEnable             0x20007120    0x10  Data  Lc  stf4_bsp_dout.o [1]
wcPorts                 0x08090f9c    0x1c  Data  Lc  stf4_bsp_dout.o [1]
writeAddress            0x0807a955    0x8c  Code  Lc  stf4_iic.o [1]
writeByte               0x0807a9e1    0x88  Code  Lc  stf4_iic.o [1]


[1] = C:\Projects\SVNrepo\dibh-prod-esEMex\iar\mex_gateway_Debug\Obj
[2] = command line
[3] = dl7M_tln.a
[4] = dlpp7M_tl_nc.a
[5] = m7M_tls.a
[6] = rt7M_tl.a
[7] = shb_l.a

  322 438 bytes of readonly  code memory
   10 173 bytes of readonly  data memory
   34 810 bytes of readwrite data memory

Errors: none
Warnings: none
